(lp1
(lp2
I18
aI14
aI10
aI1006
aI40
aI352
aI347
aI71
aI515
aI0
aI0
aI0
aI504
aI120
aI720
aI0
aI0
aI0
aa(lp3
I19
aI15
aI11
aI1007
aI41
aI353
aI346
aI70
aI514
aI1
aI1
aI1
aI505
aI121
aI721
aI1
aI1
aI1
aa(lp4
I20
aI16
aI6
aI1002
aI36
aI348
aI345
aI69
aI513
aI2
aI2
aI2
aI506
aI122
aI722
aI2
aI2
aI2
aa(lp5
I21
aI17
aI7
aI1003
aI37
aI349
aI344
aI68
aI512
aI3
aI3
aI3
aI507
aI123
aI723
aI3
aI3
aI3
aa(lp6
I22
aI12
aI8
aI1004
aI38
aI350
aI343
aI67
aI511
aI4
aI4
aI4
aI508
aI124
aI724
aI4
aI4
aI4
aa(lp7
I23
aI13
aI9
aI1005
aI39
aI351
aI342
aI66
aI510
aI5
aI5
aI5
aI509
aI125
aI725
aI5
aI5
aI5
aa(lp8
I2
aI20
aI16
aI1018
aI52
aI364
aI359
aI83
aI527
aI6
aI6
aI6
aI6
aI6
aI6
aI720
aI210
aI990
aa(lp9
I3
aI21
aI17
aI1019
aI53
aI365
aI358
aI82
aI526
aI7
aI7
aI7
aI7
aI7
aI7
aI721
aI211
aI991
aa(lp10
I4
aI22
aI12
aI1014
aI48
aI360
aI357
aI81
aI525
aI8
aI8
aI8
aI8
aI8
aI8
aI722
aI212
aI992
aa(lp11
I5
aI23
aI13
aI1015
aI49
aI361
aI356
aI80
aI524
aI9
aI9
aI9
aI9
aI9
aI9
aI723
aI213
aI993
aa(lp12
I0
aI18
aI14
aI1016
aI50
aI362
aI355
aI79
aI523
aI10
aI10
aI10
aI10
aI10
aI10
aI724
aI214
aI994
aa(lp13
I1
aI19
aI15
aI1017
aI51
aI363
aI354
aI78
aI522
aI11
aI11
aI11
aI11
aI11
aI11
aI725
aI215
aI995
aa(lp14
I8
aI4
aI22
aI1024
aI58
aI370
aI12
aI12
aI12
aI12
aI12
aI12
aI527
aI143
aI743
aI726
aI216
aI996
aa(lp15
I9
aI5
aI23
aI1025
aI59
aI371
aI13
aI13
aI13
aI13
aI13
aI13
aI526
aI142
aI742
aI727
aI217
aI997
aa(lp16
I10
aI0
aI18
aI1020
aI54
aI366
aI14
aI14
aI14
aI14
aI14
aI14
aI525
aI141
aI741
aI728
aI218
aI998
aa(lp17
I11
aI1
aI19
aI1021
aI55
aI367
aI15
aI15
aI15
aI15
aI15
aI15
aI524
aI140
aI740
aI729
aI219
aI999
aa(lp18
I6
aI2
aI20
aI1022
aI56
aI368
aI16
aI16
aI16
aI16
aI16
aI16
aI523
aI139
aI739
aI730
aI220
aI1000
aa(lp19
I7
aI3
aI21
aI1023
aI57
aI369
aI17
aI17
aI17
aI17
aI17
aI17
aI522
aI138
aI738
aI731
aI221
aI1001
aa(lp20
I14
aI10
aI0
aI18
aI18
aI18
aI370
aI94
aI538
aI18
aI18
aI18
aI533
aI149
aI749
aI732
aI222
aI1002
aa(lp21
I15
aI11
aI1
aI19
aI19
aI19
aI371
aI95
aI539
aI19
aI19
aI19
aI532
aI148
aI748
aI733
aI223
aI1003
aa(lp22
I16
aI6
aI2
aI20
aI20
aI20
aI366
aI90
aI534
aI20
aI20
aI20
aI531
aI147
aI747
aI734
aI224
aI1004
aa(lp23
I17
aI7
aI3
aI21
aI21
aI21
aI367
aI91
aI535
aI21
aI21
aI21
aI530
aI146
aI746
aI735
aI225
aI1005
aa(lp24
I12
aI8
aI4
aI22
aI22
aI22
aI368
aI92
aI536
aI22
aI22
aI22
aI529
aI145
aI745
aI736
aI226
aI1006
aa(lp25
I13
aI9
aI5
aI23
aI23
aI23
aI369
aI93
aI537
aI23
aI23
aI23
aI528
aI144
aI744
aI737
aI227
aI1007
aa(lp26
I36
aI54
aI43
aI1168
aI27
aI1165
aI377
aI101
aI545
aI210
aI120
aI60
aI24
aI24
aI24
aI24
aI24
aI24
aa(lp27
I37
aI55
aI42
aI1169
aI26
aI1164
aI376
aI100
aI544
aI211
aI121
aI61
aI25
aI25
aI25
aI25
aI25
aI25
aa(lp28
I38
aI56
aI47
aI1164
aI25
aI1169
aI375
aI99
aI543
aI212
aI122
aI62
aI26
aI26
aI26
aI26
aI26
aI26
aa(lp29
I39
aI57
aI46
aI1165
aI24
aI1168
aI374
aI98
aI542
aI213
aI123
aI63
aI27
aI27
aI27
aI27
aI27
aI27
aa(lp30
I40
aI58
aI45
aI1166
aI29
aI1167
aI373
aI97
aI541
aI214
aI124
aI64
aI28
aI28
aI28
aI28
aI28
aI28
aa(lp31
I41
aI59
aI44
aI1167
aI28
aI1166
aI372
aI96
aI540
aI215
aI125
aI65
aI29
aI29
aI29
aI29
aI29
aI29
aa(lp32
I48
aI31
aI49
aI1174
aI33
aI1171
aI30
aI30
aI30
aI216
aI126
aI66
aI545
aI161
aI761
aI30
aI30
aI30
aa(lp33
I49
aI30
aI48
aI1175
aI32
aI1170
aI31
aI31
aI31
aI217
aI127
aI67
aI544
aI160
aI760
aI31
aI31
aI31
aa(lp34
I50
aI35
aI53
aI1170
aI31
aI1175
aI32
aI32
aI32
aI218
aI128
aI68
aI543
aI159
aI759
aI32
aI32
aI32
aa(lp35
I51
aI34
aI52
aI1171
aI30
aI1174
aI33
aI33
aI33
aI219
aI129
aI69
aI542
aI158
aI758
aI33
aI33
aI33
aa(lp36
I52
aI33
aI51
aI1172
aI35
aI1173
aI34
aI34
aI34
aI220
aI130
aI70
aI541
aI157
aI757
aI34
aI34
aI34
aa(lp37
I53
aI32
aI50
aI1173
aI34
aI1172
aI35
aI35
aI35
aI221
aI131
aI71
aI540
aI156
aI756
aI35
aI35
aI35
aa(lp38
I54
aI43
aI24
aI348
aI2
aI1002
aI388
aI112
aI556
aI222
aI132
aI72
aI551
aI167
aI767
aI36
aI36
aI36
aa(lp39
I55
aI42
aI25
aI349
aI3
aI1003
aI389
aI113
aI557
aI223
aI133
aI73
aI550
aI166
aI766
aI37
aI37
aI37
aa(lp40
I56
aI47
aI26
aI350
aI4
aI1004
aI384
aI108
aI552
aI224
aI134
aI74
aI549
aI165
aI765
aI38
aI38
aI38
aa(lp41
I57
aI46
aI27
aI351
aI5
aI1005
aI385
aI109
aI553
aI225
aI135
aI75
aI548
aI164
aI764
aI39
aI39
aI39
aa(lp42
I58
aI45
aI28
aI352
aI0
aI1006
aI386
aI110
aI554
aI226
aI136
aI76
aI547
aI163
aI763
aI40
aI40
aI40
aa(lp43
I59
aI44
aI29
aI353
aI1
aI1007
aI387
aI111
aI555
aI227
aI137
aI77
aI546
aI162
aI762
aI41
aI41
aI41
aa(lp44
I25
aI37
aI55
aI1180
aI45
aI1177
aI42
aI42
aI42
aI228
aI138
aI78
aI42
aI42
aI42
aI761
aI251
aI1031
aa(lp45
I24
aI36
aI54
aI1181
aI44
aI1176
aI43
aI43
aI43
aI229
aI139
aI79
aI43
aI43
aI43
aI760
aI250
aI1030
aa(lp46
I29
aI41
aI59
aI1176
aI43
aI1181
aI44
aI44
aI44
aI230
aI140
aI80
aI44
aI44
aI44
aI759
aI249
aI1029
aa(lp47
I28
aI40
aI58
aI1177
aI42
aI1180
aI45
aI45
aI45
aI231
aI141
aI81
aI45
aI45
aI45
aI758
aI248
aI1028
aa(lp48
I27
aI39
aI57
aI1178
aI47
aI1179
aI46
aI46
aI46
aI232
aI142
aI82
aI46
aI46
aI46
aI757
aI247
aI1027
aa(lp49
I26
aI38
aI56
aI1179
aI46
aI1178
aI47
aI47
aI47
aI233
aI143
aI83
aI47
aI47
aI47
aI756
aI246
aI1026
aa(lp50
I31
aI49
aI30
aI360
aI8
aI1014
aI394
aI118
aI562
aI234
aI144
aI84
aI48
aI48
aI48
aI767
aI257
aI1037
aa(lp51
I30
aI48
aI31
aI361
aI9
aI1015
aI395
aI119
aI563
aI235
aI145
aI85
aI49
aI49
aI49
aI766
aI256
aI1036
aa(lp52
I35
aI53
aI32
aI362
aI10
aI1016
aI390
aI114
aI558
aI236
aI146
aI86
aI50
aI50
aI50
aI765
aI255
aI1035
aa(lp53
I34
aI52
aI33
aI363
aI11
aI1017
aI391
aI115
aI559
aI237
aI147
aI87
aI51
aI51
aI51
aI764
aI254
aI1034
aa(lp54
I33
aI51
aI34
aI364
aI6
aI1018
aI392
aI116
aI560
aI238
aI148
aI88
aI52
aI52
aI52
aI763
aI253
aI1033
aa(lp55
I32
aI50
aI35
aI365
aI7
aI1019
aI393
aI117
aI561
aI239
aI149
aI89
aI53
aI53
aI53
aI762
aI252
aI1032
aa(lp56
I43
aI24
aI36
aI366
aI14
aI1020
aI54
aI54
aI54
aI240
aI150
aI90
aI562
aI178
aI778
aI773
aI263
aI1043
aa(lp57
I42
aI25
aI37
aI367
aI15
aI1021
aI55
aI55
aI55
aI241
aI151
aI91
aI563
aI179
aI779
aI772
aI262
aI1042
aa(lp58
I47
aI26
aI38
aI368
aI16
aI1022
aI56
aI56
aI56
aI242
aI152
aI92
aI558
aI174
aI774
aI771
aI261
aI1041
aa(lp59
I46
aI27
aI39
aI369
aI17
aI1023
aI57
aI57
aI57
aI243
aI153
aI93
aI559
aI175
aI775
aI770
aI260
aI1040
aa(lp60
I45
aI28
aI40
aI370
aI12
aI1024
aI58
aI58
aI58
aI244
aI154
aI94
aI560
aI176
aI776
aI769
aI259
aI1039
aa(lp61
I44
aI29
aI41
aI371
aI13
aI1025
aI59
aI59
aI59
aI245
aI155
aI95
aI561
aI177
aI777
aI768
aI258
aI1038
aa(lp62
I72
aI90
aI79
aI1060
aI103
aI406
aI672
aI65
aI677
aI24
aI210
aI120
aI60
aI60
aI60
aI60
aI60
aI60
aa(lp63
I73
aI91
aI78
aI1061
aI102
aI407
aI673
aI64
aI676
aI25
aI211
aI121
aI61
aI61
aI61
aI61
aI61
aI61
aa(lp64
I74
aI92
aI83
aI1056
aI107
aI402
aI674
aI63
aI675
aI26
aI212
aI122
aI62
aI62
aI62
aI62
aI62
aI62
aa(lp65
I75
aI93
aI82
aI1057
aI106
aI403
aI675
aI62
aI674
aI27
aI213
aI123
aI63
aI63
aI63
aI63
aI63
aI63
aa(lp66
I76
aI94
aI81
aI1058
aI105
aI404
aI676
aI61
aI673
aI28
aI214
aI124
aI64
aI64
aI64
aI64
aI64
aI64
aa(lp67
I77
aI95
aI80
aI1059
aI104
aI405
aI677
aI60
aI672
aI29
aI215
aI125
aI65
aI65
aI65
aI65
aI65
aI65
aa(lp68
I84
aI67
aI85
aI1066
aI109
aI412
aI510
aI5
aI342
aI30
aI216
aI126
aI569
aI185
aI785
aI66
aI66
aI66
aa(lp69
I85
aI66
aI84
aI1067
aI108
aI413
aI511
aI4
aI343
aI31
aI217
aI127
aI568
aI184
aI784
aI67
aI67
aI67
aa(lp70
I86
aI71
aI89
aI1062
aI113
aI408
aI512
aI3
aI344
aI32
aI218
aI128
aI567
aI183
aI783
aI68
aI68
aI68
aa(lp71
I87
aI70
aI88
aI1063
aI112
aI409
aI513
aI2
aI345
aI33
aI219
aI129
aI566
aI182
aI782
aI69
aI69
aI69
aa(lp72
I88
aI69
aI87
aI1064
aI111
aI410
aI514
aI1
aI346
aI34
aI220
aI130
aI565
aI181
aI781
aI70
aI70
aI70
aa(lp73
I89
aI68
aI86
aI1065
aI110
aI411
aI515
aI0
aI347
aI35
aI221
aI131
aI564
aI180
aI780
aI71
aI71
aI71
aa(lp74
I90
aI79
aI60
aI72
aI72
aI72
aI685
aI75
aI688
aI36
aI222
aI132
aI575
aI191
aI791
aI72
aI72
aI72
aa(lp75
I91
aI78
aI61
aI73
aI73
aI73
aI684
aI74
aI689
aI37
aI223
aI133
aI574
aI190
aI790
aI73
aI73
aI73
aa(lp76
I92
aI83
aI62
aI74
aI74
aI74
aI689
aI73
aI684
aI38
aI224
aI134
aI573
aI189
aI789
aI74
aI74
aI74
aa(lp77
I93
aI82
aI63
aI75
aI75
aI75
aI688
aI72
aI685
aI39
aI225
aI135
aI572
aI188
aI788
aI75
aI75
aI75
aa(lp78
I94
aI81
aI64
aI76
aI76
aI76
aI687
aI77
aI686
aI40
aI226
aI136
aI571
aI187
aI787
aI76
aI76
aI76
aa(lp79
I95
aI80
aI65
aI77
aI77
aI77
aI686
aI76
aI687
aI41
aI227
aI137
aI570
aI186
aI786
aI77
aI77
aI77
aa(lp80
I61
aI73
aI91
aI1072
aI115
aI418
aI522
aI11
aI354
aI42
aI228
aI138
aI78
aI78
aI78
aI785
aI275
aI1055
aa(lp81
I60
aI72
aI90
aI1073
aI114
aI419
aI523
aI10
aI355
aI43
aI229
aI139
aI79
aI79
aI79
aI784
aI274
aI1054
aa(lp82
I65
aI77
aI95
aI1068
aI119
aI414
aI524
aI9
aI356
aI44
aI230
aI140
aI80
aI80
aI80
aI783
aI273
aI1053
aa(lp83
I64
aI76
aI94
aI1069
aI118
aI415
aI525
aI8
aI357
aI45
aI231
aI141
aI81
aI81
aI81
aI782
aI272
aI1052
aa(lp84
I63
aI75
aI93
aI1070
aI117
aI416
aI526
aI7
aI358
aI46
aI232
aI142
aI82
aI82
aI82
aI781
aI271
aI1051
aa(lp85
I62
aI74
aI92
aI1071
aI116
aI417
aI527
aI6
aI359
aI47
aI233
aI143
aI83
aI83
aI83
aI780
aI270
aI1050
aa(lp86
I67
aI85
aI66
aI84
aI84
aI84
aI691
aI87
aI694
aI48
aI234
aI144
aI84
aI84
aI84
aI791
aI281
aI1061
aa(lp87
I66
aI84
aI67
aI85
aI85
aI85
aI690
aI86
aI695
aI49
aI235
aI145
aI85
aI85
aI85
aI790
aI280
aI1060
aa(lp88
I71
aI89
aI68
aI86
aI86
aI86
aI695
aI85
aI690
aI50
aI236
aI146
aI86
aI86
aI86
aI789
aI279
aI1059
aa(lp89
I70
aI88
aI69
aI87
aI87
aI87
aI694
aI84
aI691
aI51
aI237
aI147
aI87
aI87
aI87
aI788
aI278
aI1058
aa(lp90
I69
aI87
aI70
aI88
aI88
aI88
aI693
aI89
aI692
aI52
aI238
aI148
aI88
aI88
aI88
aI787
aI277
aI1057
aa(lp91
I68
aI86
aI71
aI89
aI89
aI89
aI692
aI88
aI693
aI53
aI239
aI149
aI89
aI89
aI89
aI786
aI276
aI1056
aa(lp92
I79
aI60
aI72
aI90
aI90
aI90
aI534
aI20
aI366
aI54
aI240
aI150
aI586
aI202
aI802
aI797
aI287
aI1067
aa(lp93
I78
aI61
aI73
aI91
aI91
aI91
aI535
aI21
aI367
aI55
aI241
aI151
aI587
aI203
aI803
aI796
aI286
aI1066
aa(lp94
I83
aI62
aI74
aI92
aI92
aI92
aI536
aI22
aI368
aI56
aI242
aI152
aI582
aI198
aI798
aI795
aI285
aI1065
aa(lp95
I82
aI63
aI75
aI93
aI93
aI93
aI537
aI23
aI369
aI57
aI243
aI153
aI583
aI199
aI799
aI794
aI284
aI1064
aa(lp96
I81
aI64
aI76
aI94
aI94
aI94
aI538
aI18
aI370
aI58
aI244
aI154
aI584
aI200
aI800
aI793
aI283
aI1063
aa(lp97
I80
aI65
aI77
aI95
aI95
aI95
aI539
aI19
aI371
aI59
aI245
aI155
aI585
aI201
aI801
aI792
aI282
aI1062
aa(lp98
I102
aI108
aI114
aI1191
aI97
aI1190
aI540
aI29
aI372
aI251
aI300
aI180
aI96
aI96
aI96
aI96
aI96
aI96
aa(lp99
I103
aI109
aI115
aI1190
aI96
aI1191
aI541
aI28
aI373
aI250
aI301
aI181
aI97
aI97
aI97
aI97
aI97
aI97
aa(lp100
I104
aI110
aI116
aI1189
aI101
aI1192
aI542
aI27
aI374
aI249
aI302
aI182
aI98
aI98
aI98
aI98
aI98
aI98
aa(lp101
I105
aI111
aI117
aI1188
aI100
aI1193
aI543
aI26
aI375
aI248
aI303
aI183
aI99
aI99
aI99
aI99
aI99
aI99
aa(lp102
I106
aI112
aI118
aI1193
aI99
aI1188
aI544
aI25
aI376
aI247
aI304
aI184
aI100
aI100
aI100
aI100
aI100
aI100
aa(lp103
I107
aI113
aI119
aI1192
aI98
aI1189
aI545
aI24
aI377
aI246
aI305
aI185
aI101
aI101
aI101
aI101
aI101
aI101
aa(lp104
I108
aI114
aI96
aI407
aI61
aI1061
aI697
aI105
aI700
aI257
aI306
aI186
aI102
aI102
aI102
aI102
aI102
aI102
aa(lp105
I109
aI115
aI97
aI406
aI60
aI1060
aI696
aI104
aI701
aI256
aI307
aI187
aI103
aI103
aI103
aI103
aI103
aI103
aa(lp106
I110
aI116
aI98
aI405
aI65
aI1059
aI701
aI103
aI696
aI255
aI308
aI188
aI104
aI104
aI104
aI104
aI104
aI104
aa(lp107
I111
aI117
aI99
aI404
aI64
aI1058
aI700
aI102
aI697
aI254
aI309
aI189
aI105
aI105
aI105
aI105
aI105
aI105
aa(lp108
I112
aI118
aI100
aI403
aI63
aI1057
aI699
aI107
aI698
aI253
aI310
aI190
aI106
aI106
aI106
aI106
aI106
aI106
aa(lp109
I113
aI119
aI101
aI402
aI62
aI1056
aI698
aI106
aI699
aI252
aI311
aI191
aI107
aI107
aI107
aI107
aI107
aI107
aa(lp110
I114
aI96
aI102
aI413
aI67
aI1067
aI552
aI38
aI384
aI263
aI312
aI192
aI592
aI208
aI808
aI108
aI108
aI108
aa(lp111
I115
aI97
aI103
aI412
aI66
aI1066
aI553
aI39
aI385
aI262
aI313
aI193
aI593
aI209
aI809
aI109
aI109
aI109
aa(lp112
I116
aI98
aI104
aI411
aI71
aI1065
aI554
aI40
aI386
aI261
aI314
aI194
aI588
aI204
aI804
aI110
aI110
aI110
aa(lp113
I117
aI99
aI105
aI410
aI70
aI1064
aI555
aI41
aI387
aI260
aI315
aI195
aI589
aI205
aI805
aI111
aI111
aI111
aa(lp114
I118
aI100
aI106
aI409
aI69
aI1063
aI556
aI36
aI388
aI259
aI316
aI196
aI590
aI206
aI806
aI112
aI112
aI112
aa(lp115
I119
aI101
aI107
aI408
aI68
aI1062
aI557
aI37
aI389
aI258
aI317
aI197
aI591
aI207
aI807
aI113
aI113
aI113
aa(lp116
I96
aI102
aI108
aI419
aI79
aI1073
aI558
aI50
aI390
aI269
aI318
aI198
aI114
aI114
aI114
aI808
aI298
aI1078
aa(lp117
I97
aI103
aI109
aI418
aI78
aI1072
aI559
aI51
aI391
aI268
aI319
aI199
aI115
aI115
aI115
aI809
aI299
aI1079
aa(lp118
I98
aI104
aI110
aI417
aI83
aI1071
aI560
aI52
aI392
aI267
aI320
aI200
aI116
aI116
aI116
aI804
aI294
aI1074
aa(lp119
I99
aI105
aI111
aI416
aI82
aI1070
aI561
aI53
aI393
aI266
aI321
aI201
aI117
aI117
aI117
aI805
aI295
aI1075
aa(lp120
I100
aI106
aI112
aI415
aI81
aI1069
aI562
aI48
aI394
aI265
aI322
aI202
aI118
aI118
aI118
aI806
aI296
aI1076
aa(lp121
I101
aI107
aI113
aI414
aI80
aI1068
aI563
aI49
aI395
aI264
aI323
aI203
aI119
aI119
aI119
aI807
aI297
aI1077
aa(lp122
I132
aI150
aI139
aI1090
aI163
aI436
aI431
aI180
aI599
aI60
aI24
aI210
aI720
aI0
aI504
aI120
aI120
aI120
aa(lp123
I133
aI151
aI138
aI1091
aI162
aI437
aI430
aI181
aI598
aI61
aI25
aI211
aI721
aI1
aI505
aI121
aI121
aI121
aa(lp124
I134
aI152
aI143
aI1086
aI167
aI432
aI429
aI182
aI597
aI62
aI26
aI212
aI722
aI2
aI506
aI122
aI122
aI122
aa(lp125
I135
aI153
aI142
aI1087
aI166
aI433
aI428
aI183
aI596
aI63
aI27
aI213
aI723
aI3
aI507
aI123
aI123
aI123
aa(lp126
I136
aI154
aI141
aI1088
aI165
aI434
aI427
aI184
aI595
aI64
aI28
aI214
aI724
aI4
aI508
aI124
aI124
aI124
aa(lp127
I137
aI155
aI140
aI1089
aI164
aI435
aI426
aI185
aI594
aI65
aI29
aI215
aI725
aI5
aI509
aI125
aI125
aI125
aa(lp128
I144
aI127
aI145
aI1096
aI169
aI442
aI126
aI126
aI126
aI66
aI30
aI216
aI936
aI131
aI941
aI126
aI126
aI126
aa(lp129
I145
aI126
aI144
aI1097
aI168
aI443
aI127
aI127
aI127
aI67
aI31
aI217
aI937
aI130
aI940
aI127
aI127
aI127
aa(lp130
I146
aI131
aI149
aI1092
aI173
aI438
aI128
aI128
aI128
aI68
aI32
aI218
aI938
aI129
aI939
aI128
aI128
aI128
aa(lp131
I147
aI130
aI148
aI1093
aI172
aI439
aI129
aI129
aI129
aI69
aI33
aI219
aI939
aI128
aI938
aI129
aI129
aI129
aa(lp132
I148
aI129
aI147
aI1094
aI171
aI440
aI130
aI130
aI130
aI70
aI34
aI220
aI940
aI127
aI937
aI130
aI130
aI130
aa(lp133
I149
aI128
aI146
aI1095
aI170
aI441
aI131
aI131
aI131
aI71
aI35
aI221
aI941
aI126
aI936
aI131
aI131
aI131
aa(lp134
I150
aI139
aI120
aI132
aI132
aI132
aI442
aI193
aI610
aI72
aI36
aI222
aI942
aI137
aI947
aI132
aI132
aI132
aa(lp135
I151
aI138
aI121
aI133
aI133
aI133
aI443
aI192
aI611
aI73
aI37
aI223
aI943
aI136
aI946
aI133
aI133
aI133
aa(lp136
I152
aI143
aI122
aI134
aI134
aI134
aI438
aI197
aI606
aI74
aI38
aI224
aI944
aI135
aI945
aI134
aI134
aI134
aa(lp137
I153
aI142
aI123
aI135
aI135
aI135
aI439
aI196
aI607
aI75
aI39
aI225
aI945
aI134
aI944
aI135
aI135
aI135
aa(lp138
I154
aI141
aI124
aI136
aI136
aI136
aI440
aI195
aI608
aI76
aI40
aI226
aI946
aI133
aI943
aI136
aI136
aI136
aa(lp139
I155
aI140
aI125
aI137
aI137
aI137
aI441
aI194
aI609
aI77
aI41
aI227
aI947
aI132
aI942
aI137
aI137
aI137
aa(lp140
I121
aI133
aI151
aI1102
aI175
aI448
aI138
aI138
aI138
aI78
aI42
aI228
aI738
aI17
aI522
aI815
aI305
aI1085
aa(lp141
I120
aI132
aI150
aI1103
aI174
aI449
aI139
aI139
aI139
aI79
aI43
aI229
aI739
aI16
aI523
aI814
aI304
aI1084
aa(lp142
I125
aI137
aI155
aI1098
aI179
aI444
aI140
aI140
aI140
aI80
aI44
aI230
aI740
aI15
aI524
aI813
aI303
aI1083
aa(lp143
I124
aI136
aI154
aI1099
aI178
aI445
aI141
aI141
aI141
aI81
aI45
aI231
aI741
aI14
aI525
aI812
aI302
aI1082
aa(lp144
I123
aI135
aI153
aI1100
aI177
aI446
aI142
aI142
aI142
aI82
aI46
aI232
aI742
aI13
aI526
aI811
aI301
aI1081
aa(lp145
I122
aI134
aI152
aI1101
aI176
aI447
aI143
aI143
aI143
aI83
aI47
aI233
aI743
aI12
aI527
aI810
aI300
aI1080
aa(lp146
I127
aI145
aI126
aI144
aI144
aI144
aI448
aI199
aI616
aI84
aI48
aI234
aI744
aI23
aI528
aI821
aI311
aI1091
aa(lp147
I126
aI144
aI127
aI145
aI145
aI145
aI449
aI198
aI617
aI85
aI49
aI235
aI745
aI22
aI529
aI820
aI310
aI1090
aa(lp148
I131
aI149
aI128
aI146
aI146
aI146
aI444
aI203
aI612
aI86
aI50
aI236
aI746
aI21
aI530
aI819
aI309
aI1089
aa(lp149
I130
aI148
aI129
aI147
aI147
aI147
aI445
aI202
aI613
aI87
aI51
aI237
aI747
aI20
aI531
aI818
aI308
aI1088
aa(lp150
I129
aI147
aI130
aI148
aI148
aI148
aI446
aI201
aI614
aI88
aI52
aI238
aI748
aI19
aI532
aI817
aI307
aI1087
aa(lp151
I128
aI146
aI131
aI149
aI149
aI149
aI447
aI200
aI615
aI89
aI53
aI239
aI749
aI18
aI533
aI816
aI306
aI1086
aa(lp152
I139
aI120
aI132
aI150
aI150
aI150
aI150
aI150
aI150
aI90
aI54
aI240
aI955
aI153
aI958
aI827
aI317
aI1097
aa(lp153
I138
aI121
aI133
aI151
aI151
aI151
aI151
aI151
aI151
aI91
aI55
aI241
aI954
aI152
aI959
aI826
aI316
aI1096
aa(lp154
I143
aI122
aI134
aI152
aI152
aI152
aI152
aI152
aI152
aI92
aI56
aI242
aI959
aI151
aI954
aI825
aI315
aI1095
aa(lp155
I142
aI123
aI135
aI153
aI153
aI153
aI153
aI153
aI153
aI93
aI57
aI243
aI958
aI150
aI955
aI824
aI314
aI1094
aa(lp156
I141
aI124
aI136
aI154
aI154
aI154
aI154
aI154
aI154
aI94
aI58
aI244
aI957
aI155
aI956
aI823
aI313
aI1093
aa(lp157
I140
aI125
aI137
aI155
aI155
aI155
aI155
aI155
aI155
aI95
aI59
aI245
aI956
aI154
aI957
aI822
aI312
aI1092
aa(lp158
I162
aI168
aI174
aI1197
aI157
aI1196
aI156
aI156
aI156
aI275
aI161
aI270
aI756
aI35
aI540
aI156
aI156
aI156
aa(lp159
I163
aI169
aI175
aI1196
aI156
aI1197
aI157
aI157
aI157
aI274
aI160
aI271
aI757
aI34
aI541
aI157
aI157
aI157
aa(lp160
I164
aI170
aI176
aI1195
aI161
aI1198
aI158
aI158
aI158
aI273
aI159
aI272
aI758
aI33
aI542
aI158
aI158
aI158
aa(lp161
I165
aI171
aI177
aI1194
aI160
aI1199
aI159
aI159
aI159
aI272
aI158
aI273
aI759
aI32
aI543
aI159
aI159
aI159
aa(lp162
I166
aI172
aI178
aI1199
aI159
aI1194
aI160
aI160
aI160
aI271
aI157
aI274
aI760
aI31
aI544
aI160
aI160
aI160
aa(lp163
I167
aI173
aI179
aI1198
aI158
aI1195
aI161
aI161
aI161
aI270
aI156
aI275
aI761
aI30
aI545
aI161
aI161
aI161
aa(lp164
I168
aI174
aI156
aI437
aI121
aI1091
aI454
aI205
aI622
aI281
aI167
aI276
aI762
aI41
aI546
aI162
aI162
aI162
aa(lp165
I169
aI175
aI157
aI436
aI120
aI1090
aI455
aI204
aI623
aI280
aI166
aI277
aI763
aI40
aI547
aI163
aI163
aI163
aa(lp166
I170
aI176
aI158
aI435
aI125
aI1089
aI450
aI209
aI618
aI279
aI165
aI278
aI764
aI39
aI548
aI164
aI164
aI164
aa(lp167
I171
aI177
aI159
aI434
aI124
aI1088
aI451
aI208
aI619
aI278
aI164
aI279
aI765
aI38
aI549
aI165
aI165
aI165
aa(lp168
I172
aI178
aI160
aI433
aI123
aI1087
aI452
aI207
aI620
aI277
aI163
aI280
aI766
aI37
aI550
aI166
aI166
aI166
aa(lp169
I173
aI179
aI161
aI432
aI122
aI1086
aI453
aI206
aI621
aI276
aI162
aI281
aI767
aI36
aI551
aI167
aI167
aI167
aa(lp170
I174
aI156
aI162
aI443
aI127
aI1097
aI168
aI168
aI168
aI287
aI173
aI282
aI961
aI171
aI964
aI168
aI168
aI168
aa(lp171
I175
aI157
aI163
aI442
aI126
aI1096
aI169
aI169
aI169
aI286
aI172
aI283
aI960
aI170
aI965
aI169
aI169
aI169
aa(lp172
I176
aI158
aI164
aI441
aI131
aI1095
aI170
aI170
aI170
aI285
aI171
aI284
aI965
aI169
aI960
aI170
aI170
aI170
aa(lp173
I177
aI159
aI165
aI440
aI130
aI1094
aI171
aI171
aI171
aI284
aI170
aI285
aI964
aI168
aI961
aI171
aI171
aI171
aa(lp174
I178
aI160
aI166
aI439
aI129
aI1093
aI172
aI172
aI172
aI283
aI169
aI286
aI963
aI173
aI962
aI172
aI172
aI172
aa(lp175
I179
aI161
aI167
aI438
aI128
aI1092
aI173
aI173
aI173
aI282
aI168
aI287
aI962
aI172
aI963
aI173
aI173
aI173
aa(lp176
I156
aI162
aI168
aI449
aI139
aI1103
aI174
aI174
aI174
aI293
aI179
aI288
aI774
aI56
aI558
aI838
aI328
aI1108
aa(lp177
I157
aI163
aI169
aI448
aI138
aI1102
aI175
aI175
aI175
aI292
aI178
aI289
aI775
aI57
aI559
aI839
aI329
aI1109
aa(lp178
I158
aI164
aI170
aI447
aI143
aI1101
aI176
aI176
aI176
aI291
aI177
aI290
aI776
aI58
aI560
aI834
aI324
aI1104
aa(lp179
I159
aI165
aI171
aI446
aI142
aI1100
aI177
aI177
aI177
aI290
aI176
aI291
aI777
aI59
aI561
aI835
aI325
aI1105
aa(lp180
I160
aI166
aI172
aI445
aI141
aI1099
aI178
aI178
aI178
aI289
aI175
aI292
aI778
aI54
aI562
aI836
aI326
aI1106
aa(lp181
I161
aI167
aI173
aI444
aI140
aI1098
aI179
aI179
aI179
aI288
aI174
aI293
aI779
aI55
aI563
aI837
aI327
aI1107
aa(lp182
I186
aI192
aI198
aI1114
aI204
aI460
aI599
aI120
aI431
aI96
aI251
aI300
aI780
aI71
aI564
aI180
aI180
aI180
aa(lp183
I187
aI193
aI199
aI1115
aI205
aI461
aI598
aI121
aI430
aI97
aI250
aI301
aI781
aI70
aI565
aI181
aI181
aI181
aa(lp184
I188
aI194
aI200
aI1110
aI206
aI456
aI597
aI122
aI429
aI98
aI249
aI302
aI782
aI69
aI566
aI182
aI182
aI182
aa(lp185
I189
aI195
aI201
aI1111
aI207
aI457
aI596
aI123
aI428
aI99
aI248
aI303
aI783
aI68
aI567
aI183
aI183
aI183
aa(lp186
I190
aI196
aI202
aI1112
aI208
aI458
aI595
aI124
aI427
aI100
aI247
aI304
aI784
aI67
aI568
aI184
aI184
aI184
aa(lp187
I191
aI197
aI203
aI1113
aI209
aI459
aI594
aI125
aI426
aI101
aI246
aI305
aI785
aI66
aI569
aI185
aI185
aI185
aa(lp188
I192
aI198
aI180
aI186
aI186
aI186
aI710
aI187
aI711
aI102
aI257
aI306
aI786
aI77
aI570
aI186
aI186
aI186
aa(lp189
I193
aI199
aI181
aI187
aI187
aI187
aI711
aI186
aI710
aI103
aI256
aI307
aI787
aI76
aI571
aI187
aI187
aI187
aa(lp190
I194
aI200
aI182
aI188
aI188
aI188
aI712
aI191
aI709
aI104
aI255
aI308
aI788
aI75
aI572
aI188
aI188
aI188
aa(lp191
I195
aI201
aI183
aI189
aI189
aI189
aI713
aI190
aI708
aI105
aI254
aI309
aI789
aI74
aI573
aI189
aI189
aI189
aa(lp192
I196
aI202
aI184
aI190
aI190
aI190
aI708
aI189
aI713
aI106
aI253
aI310
aI790
aI73
aI574
aI190
aI190
aI190
aa(lp193
I197
aI203
aI185
aI191
aI191
aI191
aI709
aI188
aI712
aI107
aI252
aI311
aI791
aI72
aI575
aI191
aI191
aI191
aa(lp194
I198
aI180
aI186
aI192
aI192
aI192
aI611
aI133
aI443
aI108
aI263
aI312
aI967
aI195
aI970
aI192
aI192
aI192
aa(lp195
I199
aI181
aI187
aI193
aI193
aI193
aI610
aI132
aI442
aI109
aI262
aI313
aI966
aI194
aI971
aI193
aI193
aI193
aa(lp196
I200
aI182
aI188
aI194
aI194
aI194
aI609
aI137
aI441
aI110
aI261
aI314
aI971
aI193
aI966
aI194
aI194
aI194
aa(lp197
I201
aI183
aI189
aI195
aI195
aI195
aI608
aI136
aI440
aI111
aI260
aI315
aI970
aI192
aI967
aI195
aI195
aI195
aa(lp198
I202
aI184
aI190
aI196
aI196
aI196
aI607
aI135
aI439
aI112
aI259
aI316
aI969
aI197
aI968
aI196
aI196
aI196
aa(lp199
I203
aI185
aI191
aI197
aI197
aI197
aI606
aI134
aI438
aI113
aI258
aI317
aI968
aI196
aI969
aI197
aI197
aI197
aa(lp200
I180
aI186
aI192
aI198
aI198
aI198
aI617
aI145
aI449
aI114
aI269
aI318
aI798
aI92
aI582
aI844
aI334
aI1114
aa(lp201
I181
aI187
aI193
aI199
aI199
aI199
aI616
aI144
aI448
aI115
aI268
aI319
aI799
aI93
aI583
aI845
aI335
aI1115
aa(lp202
I182
aI188
aI194
aI200
aI200
aI200
aI615
aI149
aI447
aI116
aI267
aI320
aI800
aI94
aI584
aI840
aI330
aI1110
aa(lp203
I183
aI189
aI195
aI201
aI201
aI201
aI614
aI148
aI446
aI117
aI266
aI321
aI801
aI95
aI585
aI841
aI331
aI1111
aa(lp204
I184
aI190
aI196
aI202
aI202
aI202
aI613
aI147
aI445
aI118
aI265
aI322
aI802
aI90
aI586
aI842
aI332
aI1112
aa(lp205
I185
aI191
aI197
aI203
aI203
aI203
aI612
aI146
aI444
aI119
aI264
aI323
aI803
aI91
aI587
aI843
aI333
aI1113
aa(lp206
I204
aI204
aI204
aI460
aI180
aI1114
aI623
aI163
aI455
aI298
aI326
aI330
aI804
aI110
aI588
aI204
aI204
aI204
aa(lp207
I205
aI205
aI205
aI461
aI181
aI1115
aI622
aI162
aI454
aI299
aI327
aI331
aI805
aI111
aI589
aI205
aI205
aI205
aa(lp208
I206
aI206
aI206
aI456
aI182
aI1110
aI621
aI167
aI453
aI294
aI328
aI332
aI806
aI112
aI590
aI206
aI206
aI206
aa(lp209
I207
aI207
aI207
aI457
aI183
aI1111
aI620
aI166
aI452
aI295
aI329
aI333
aI807
aI113
aI591
aI207
aI207
aI207
aa(lp210
I208
aI208
aI208
aI458
aI184
aI1112
aI619
aI165
aI451
aI296
aI324
aI334
aI808
aI108
aI592
aI208
aI208
aI208
aa(lp211
I209
aI209
aI209
aI459
aI185
aI1113
aI618
aI164
aI450
aI297
aI325
aI335
aI809
aI109
aI593
aI209
aI209
aI209
aa(lp212
I222
aI240
aI229
aI1126
aI253
aI472
aI467
aI270
aI635
aI120
aI60
aI24
aI210
aI210
aI210
aI990
aI6
aI720
aa(lp213
I223
aI241
aI228
aI1127
aI252
aI473
aI466
aI271
aI634
aI121
aI61
aI25
aI211
aI211
aI211
aI991
aI7
aI721
aa(lp214
I224
aI242
aI233
aI1122
aI257
aI468
aI465
aI272
aI633
aI122
aI62
aI26
aI212
aI212
aI212
aI992
aI8
aI722
aa(lp215
I225
aI243
aI232
aI1123
aI256
aI469
aI464
aI273
aI632
aI123
aI63
aI27
aI213
aI213
aI213
aI993
aI9
aI723
aa(lp216
I226
aI244
aI231
aI1124
aI255
aI470
aI463
aI274
aI631
aI124
aI64
aI28
aI214
aI214
aI214
aI994
aI10
aI724
aa(lp217
I227
aI245
aI230
aI1125
aI254
aI471
aI462
aI275
aI630
aI125
aI65
aI29
aI215
aI215
aI215
aI995
aI11
aI725
aa(lp218
I234
aI217
aI235
aI1132
aI259
aI478
aI216
aI216
aI216
aI126
aI66
aI30
aI635
aI300
aI851
aI996
aI12
aI726
aa(lp219
I235
aI216
aI234
aI1133
aI258
aI479
aI217
aI217
aI217
aI127
aI67
aI31
aI634
aI301
aI850
aI997
aI13
aI727
aa(lp220
I236
aI221
aI239
aI1128
aI263
aI474
aI218
aI218
aI218
aI128
aI68
aI32
aI633
aI302
aI849
aI998
aI14
aI728
aa(lp221
I237
aI220
aI238
aI1129
aI262
aI475
aI219
aI219
aI219
aI129
aI69
aI33
aI632
aI303
aI848
aI999
aI15
aI729
aa(lp222
I238
aI219
aI237
aI1130
aI261
aI476
aI220
aI220
aI220
aI130
aI70
aI34
aI631
aI304
aI847
aI1000
aI16
aI730
aa(lp223
I239
aI218
aI236
aI1131
aI260
aI477
aI221
aI221
aI221
aI131
aI71
aI35
aI630
aI305
aI846
aI1001
aI17
aI731
aa(lp224
I240
aI229
aI210
aI222
aI222
aI222
aI478
aI283
aI646
aI132
aI72
aI36
aI641
aI306
aI857
aI1002
aI18
aI732
aa(lp225
I241
aI228
aI211
aI223
aI223
aI223
aI479
aI282
aI647
aI133
aI73
aI37
aI640
aI307
aI856
aI1003
aI19
aI733
aa(lp226
I242
aI233
aI212
aI224
aI224
aI224
aI474
aI287
aI642
aI134
aI74
aI38
aI639
aI308
aI855
aI1004
aI20
aI734
aa(lp227
I243
aI232
aI213
aI225
aI225
aI225
aI475
aI286
aI643
aI135
aI75
aI39
aI638
aI309
aI854
aI1005
aI21
aI735
aa(lp228
I244
aI231
aI214
aI226
aI226
aI226
aI476
aI285
aI644
aI136
aI76
aI40
aI637
aI310
aI853
aI1006
aI22
aI736
aa(lp229
I245
aI230
aI215
aI227
aI227
aI227
aI477
aI284
aI645
aI137
aI77
aI41
aI636
aI311
aI852
aI1007
aI23
aI737
aa(lp230
I211
aI223
aI241
aI1138
aI265
aI484
aI228
aI228
aI228
aI138
aI78
aI42
aI228
aI228
aI228
aI1260
aI233
aI1265
aa(lp231
I210
aI222
aI240
aI1139
aI264
aI485
aI229
aI229
aI229
aI139
aI79
aI43
aI229
aI229
aI229
aI1261
aI232
aI1264
aa(lp232
I215
aI227
aI245
aI1134
aI269
aI480
aI230
aI230
aI230
aI140
aI80
aI44
aI230
aI230
aI230
aI1262
aI231
aI1263
aa(lp233
I214
aI226
aI244
aI1135
aI268
aI481
aI231
aI231
aI231
aI141
aI81
aI45
aI231
aI231
aI231
aI1263
aI230
aI1262
aa(lp234
I213
aI225
aI243
aI1136
aI267
aI482
aI232
aI232
aI232
aI142
aI82
aI46
aI232
aI232
aI232
aI1264
aI229
aI1261
aa(lp235
I212
aI224
aI242
aI1137
aI266
aI483
aI233
aI233
aI233
aI143
aI83
aI47
aI233
aI233
aI233
aI1265
aI228
aI1260
aa(lp236
I217
aI235
aI216
aI234
aI234
aI234
aI484
aI289
aI652
aI144
aI84
aI48
aI234
aI234
aI234
aI1266
aI239
aI1271
aa(lp237
I216
aI234
aI217
aI235
aI235
aI235
aI485
aI288
aI653
aI145
aI85
aI49
aI235
aI235
aI235
aI1267
aI238
aI1270
aa(lp238
I221
aI239
aI218
aI236
aI236
aI236
aI480
aI293
aI648
aI146
aI86
aI50
aI236
aI236
aI236
aI1268
aI237
aI1269
aa(lp239
I220
aI238
aI219
aI237
aI237
aI237
aI481
aI292
aI649
aI147
aI87
aI51
aI237
aI237
aI237
aI1269
aI236
aI1268
aa(lp240
I219
aI237
aI220
aI238
aI238
aI238
aI482
aI291
aI650
aI148
aI88
aI52
aI238
aI238
aI238
aI1270
aI235
aI1267
aa(lp241
I218
aI236
aI221
aI239
aI239
aI239
aI483
aI290
aI651
aI149
aI89
aI53
aI239
aI239
aI239
aI1271
aI234
aI1266
aa(lp242
I229
aI210
aI222
aI240
aI240
aI240
aI240
aI240
aI240
aI150
aI90
aI54
aI652
aI319
aI868
aI1272
aI245
aI1277
aa(lp243
I228
aI211
aI223
aI241
aI241
aI241
aI241
aI241
aI241
aI151
aI91
aI55
aI653
aI318
aI869
aI1273
aI244
aI1276
aa(lp244
I233
aI212
aI224
aI242
aI242
aI242
aI242
aI242
aI242
aI152
aI92
aI56
aI648
aI323
aI864
aI1274
aI243
aI1275
aa(lp245
I232
aI213
aI225
aI243
aI243
aI243
aI243
aI243
aI243
aI153
aI93
aI57
aI649
aI322
aI865
aI1275
aI242
aI1274
aa(lp246
I231
aI214
aI226
aI244
aI244
aI244
aI244
aI244
aI244
aI154
aI94
aI58
aI650
aI321
aI866
aI1276
aI241
aI1273
aa(lp247
I230
aI215
aI227
aI245
aI245
aI245
aI245
aI245
aI245
aI155
aI95
aI59
aI651
aI320
aI867
aI1277
aI240
aI1272
aa(lp248
I252
aI258
aI264
aI1203
aI247
aI1202
aI246
aI246
aI246
aI305
aI185
aI101
aI246
aI246
aI246
aI1026
aI47
aI756
aa(lp249
I253
aI259
aI265
aI1202
aI246
aI1203
aI247
aI247
aI247
aI304
aI184
aI100
aI247
aI247
aI247
aI1027
aI46
aI757
aa(lp250
I254
aI260
aI266
aI1201
aI251
aI1204
aI248
aI248
aI248
aI303
aI183
aI99
aI248
aI248
aI248
aI1028
aI45
aI758
aa(lp251
I255
aI261
aI267
aI1200
aI250
aI1205
aI249
aI249
aI249
aI302
aI182
aI98
aI249
aI249
aI249
aI1029
aI44
aI759
aa(lp252
I256
aI262
aI268
aI1205
aI249
aI1200
aI250
aI250
aI250
aI301
aI181
aI97
aI250
aI250
aI250
aI1030
aI43
aI760
aa(lp253
I257
aI263
aI269
aI1204
aI248
aI1201
aI251
aI251
aI251
aI300
aI180
aI96
aI251
aI251
aI251
aI1031
aI42
aI761
aa(lp254
I258
aI264
aI246
aI473
aI211
aI1127
aI490
aI295
aI658
aI311
aI191
aI107
aI252
aI252
aI252
aI1032
aI53
aI762
aa(lp255
I259
aI265
aI247
aI472
aI210
aI1126
aI491
aI294
aI659
aI310
aI190
aI106
aI253
aI253
aI253
aI1033
aI52
aI763
aa(lp256
I260
aI266
aI248
aI471
aI215
aI1125
aI486
aI299
aI654
aI309
aI189
aI105
aI254
aI254
aI254
aI1034
aI51
aI764
aa(lp257
I261
aI267
aI249
aI470
aI214
aI1124
aI487
aI298
aI655
aI308
aI188
aI104
aI255
aI255
aI255
aI1035
aI50
aI765
aa(lp258
I262
aI268
aI250
aI469
aI213
aI1123
aI488
aI297
aI656
aI307
aI187
aI103
aI256
aI256
aI256
aI1036
aI49
aI766
aa(lp259
I263
aI269
aI251
aI468
aI212
aI1122
aI489
aI296
aI657
aI306
aI186
aI102
aI257
aI257
aI257
aI1037
aI48
aI767
aa(lp260
I264
aI246
aI252
aI479
aI217
aI1133
aI258
aI258
aI258
aI317
aI197
aI113
aI658
aI325
aI874
aI1038
aI59
aI768
aa(lp261
I265
aI247
aI253
aI478
aI216
aI1132
aI259
aI259
aI259
aI316
aI196
aI112
aI659
aI324
aI875
aI1039
aI58
aI769
aa(lp262
I266
aI248
aI254
aI477
aI221
aI1131
aI260
aI260
aI260
aI315
aI195
aI111
aI654
aI329
aI870
aI1040
aI57
aI770
aa(lp263
I267
aI249
aI255
aI476
aI220
aI1130
aI261
aI261
aI261
aI314
aI194
aI110
aI655
aI328
aI871
aI1041
aI56
aI771
aa(lp264
I268
aI250
aI256
aI475
aI219
aI1129
aI262
aI262
aI262
aI313
aI193
aI109
aI656
aI327
aI872
aI1042
aI55
aI772
aa(lp265
I269
aI251
aI257
aI474
aI218
aI1128
aI263
aI263
aI263
aI312
aI192
aI108
aI657
aI326
aI873
aI1043
aI54
aI773
aa(lp266
I246
aI252
aI258
aI485
aI229
aI1139
aI264
aI264
aI264
aI323
aI203
aI119
aI264
aI264
aI264
aI1285
aI267
aI1288
aa(lp267
I247
aI253
aI259
aI484
aI228
aI1138
aI265
aI265
aI265
aI322
aI202
aI118
aI265
aI265
aI265
aI1284
aI266
aI1289
aa(lp268
I248
aI254
aI260
aI483
aI233
aI1137
aI266
aI266
aI266
aI321
aI201
aI117
aI266
aI266
aI266
aI1289
aI265
aI1284
aa(lp269
I249
aI255
aI261
aI482
aI232
aI1136
aI267
aI267
aI267
aI320
aI200
aI116
aI267
aI267
aI267
aI1288
aI264
aI1285
aa(lp270
I250
aI256
aI262
aI481
aI231
aI1135
aI268
aI268
aI268
aI319
aI199
aI115
aI268
aI268
aI268
aI1287
aI269
aI1286
aa(lp271
I251
aI257
aI263
aI480
aI230
aI1134
aI269
aI269
aI269
aI318
aI198
aI114
aI269
aI269
aI269
aI1286
aI268
aI1287
aa(lp272
I276
aI282
aI288
aI1150
aI294
aI496
aI635
aI210
aI467
aI156
aI275
aI161
aI270
aI270
aI270
aI1050
aI83
aI780
aa(lp273
I277
aI283
aI289
aI1151
aI295
aI497
aI634
aI211
aI466
aI157
aI274
aI160
aI271
aI271
aI271
aI1051
aI82
aI781
aa(lp274
I278
aI284
aI290
aI1146
aI296
aI492
aI633
aI212
aI465
aI158
aI273
aI159
aI272
aI272
aI272
aI1052
aI81
aI782
aa(lp275
I279
aI285
aI291
aI1147
aI297
aI493
aI632
aI213
aI464
aI159
aI272
aI158
aI273
aI273
aI273
aI1053
aI80
aI783
aa(lp276
I280
aI286
aI292
aI1148
aI298
aI494
aI631
aI214
aI463
aI160
aI271
aI157
aI274
aI274
aI274
aI1054
aI79
aI784
aa(lp277
I281
aI287
aI293
aI1149
aI299
aI495
aI630
aI215
aI462
aI161
aI270
aI156
aI275
aI275
aI275
aI1055
aI78
aI785
aa(lp278
I282
aI288
aI270
aI276
aI276
aI276
aI716
aI277
aI717
aI162
aI281
aI167
aI276
aI276
aI276
aI1056
aI89
aI786
aa(lp279
I283
aI289
aI271
aI277
aI277
aI277
aI717
aI276
aI716
aI163
aI280
aI166
aI277
aI277
aI277
aI1057
aI88
aI787
aa(lp280
I284
aI290
aI272
aI278
aI278
aI278
aI718
aI281
aI715
aI164
aI279
aI165
aI278
aI278
aI278
aI1058
aI87
aI788
aa(lp281
I285
aI291
aI273
aI279
aI279
aI279
aI719
aI280
aI714
aI165
aI278
aI164
aI279
aI279
aI279
aI1059
aI86
aI789
aa(lp282
I286
aI292
aI274
aI280
aI280
aI280
aI714
aI279
aI719
aI166
aI277
aI163
aI280
aI280
aI280
aI1060
aI85
aI790
aa(lp283
I287
aI293
aI275
aI281
aI281
aI281
aI715
aI278
aI718
aI167
aI276
aI162
aI281
aI281
aI281
aI1061
aI84
aI791
aa(lp284
I288
aI270
aI276
aI282
aI282
aI282
aI647
aI223
aI479
aI168
aI287
aI173
aI664
aI331
aI880
aI1062
aI95
aI792
aa(lp285
I289
aI271
aI277
aI283
aI283
aI283
aI646
aI222
aI478
aI169
aI286
aI172
aI665
aI330
aI881
aI1063
aI94
aI793
aa(lp286
I290
aI272
aI278
aI284
aI284
aI284
aI645
aI227
aI477
aI170
aI285
aI171
aI660
aI335
aI876
aI1064
aI93
aI794
aa(lp287
I291
aI273
aI279
aI285
aI285
aI285
aI644
aI226
aI476
aI171
aI284
aI170
aI661
aI334
aI877
aI1065
aI92
aI795
aa(lp288
I292
aI274
aI280
aI286
aI286
aI286
aI643
aI225
aI475
aI172
aI283
aI169
aI662
aI333
aI878
aI1066
aI91
aI796
aa(lp289
I293
aI275
aI281
aI287
aI287
aI287
aI642
aI224
aI474
aI173
aI282
aI168
aI663
aI332
aI879
aI1067
aI90
aI797
aa(lp290
I270
aI276
aI282
aI288
aI288
aI288
aI653
aI235
aI485
aI174
aI293
aI179
aI288
aI288
aI288
aI1291
aI291
aI1294
aa(lp291
I271
aI277
aI283
aI289
aI289
aI289
aI652
aI234
aI484
aI175
aI292
aI178
aI289
aI289
aI289
aI1290
aI290
aI1295
aa(lp292
I272
aI278
aI284
aI290
aI290
aI290
aI651
aI239
aI483
aI176
aI291
aI177
aI290
aI290
aI290
aI1295
aI289
aI1290
aa(lp293
I273
aI279
aI285
aI291
aI291
aI291
aI650
aI238
aI482
aI177
aI290
aI176
aI291
aI291
aI291
aI1294
aI288
aI1291
aa(lp294
I274
aI280
aI286
aI292
aI292
aI292
aI649
aI237
aI481
aI178
aI289
aI175
aI292
aI292
aI292
aI1293
aI293
aI1292
aa(lp295
I275
aI281
aI287
aI293
aI293
aI293
aI648
aI236
aI480
aI179
aI288
aI174
aI293
aI293
aI293
aI1292
aI292
aI1293
aa(lp296
I294
aI294
aI294
aI496
aI270
aI1150
aI659
aI253
aI491
aI328
aI332
aI206
aI294
aI294
aI294
aI1074
aI116
aI804
aa(lp297
I295
aI295
aI295
aI497
aI271
aI1151
aI658
aI252
aI490
aI329
aI333
aI207
aI295
aI295
aI295
aI1075
aI117
aI805
aa(lp298
I296
aI296
aI296
aI492
aI272
aI1146
aI657
aI257
aI489
aI324
aI334
aI208
aI296
aI296
aI296
aI1076
aI118
aI806
aa(lp299
I297
aI297
aI297
aI493
aI273
aI1147
aI656
aI256
aI488
aI325
aI335
aI209
aI297
aI297
aI297
aI1077
aI119
aI807
aa(lp300
I298
aI298
aI298
aI494
aI274
aI1148
aI655
aI255
aI487
aI326
aI330
aI204
aI298
aI298
aI298
aI1078
aI114
aI808
aa(lp301
I299
aI299
aI299
aI495
aI275
aI1149
aI654
aI254
aI486
aI327
aI331
aI205
aI299
aI299
aI299
aI1079
aI115
aI809
aa(lp302
I306
aI312
aI318
aI1156
aI324
aI502
aI300
aI300
aI300
aI180
aI96
aI251
aI851
aI216
aI635
aI1080
aI143
aI810
aa(lp303
I307
aI313
aI319
aI1157
aI325
aI503
aI301
aI301
aI301
aI181
aI97
aI250
aI850
aI217
aI634
aI1081
aI142
aI811
aa(lp304
I308
aI314
aI320
aI1152
aI326
aI498
aI302
aI302
aI302
aI182
aI98
aI249
aI849
aI218
aI633
aI1082
aI141
aI812
aa(lp305
I309
aI315
aI321
aI1153
aI327
aI499
aI303
aI303
aI303
aI183
aI99
aI248
aI848
aI219
aI632
aI1083
aI140
aI813
aa(lp306
I310
aI316
aI322
aI1154
aI328
aI500
aI304
aI304
aI304
aI184
aI100
aI247
aI847
aI220
aI631
aI1084
aI139
aI814
aa(lp307
I311
aI317
aI323
aI1155
aI329
aI501
aI305
aI305
aI305
aI185
aI101
aI246
aI846
aI221
aI630
aI1085
aI138
aI815
aa(lp308
I312
aI318
aI300
aI306
aI306
aI306
aI502
aI330
aI670
aI186
aI102
aI257
aI857
aI222
aI641
aI1086
aI149
aI816
aa(lp309
I313
aI319
aI301
aI307
aI307
aI307
aI503
aI331
aI671
aI187
aI103
aI256
aI856
aI223
aI640
aI1087
aI148
aI817
aa(lp310
I314
aI320
aI302
aI308
aI308
aI308
aI498
aI332
aI666
aI188
aI104
aI255
aI855
aI224
aI639
aI1088
aI147
aI818
aa(lp311
I315
aI321
aI303
aI309
aI309
aI309
aI499
aI333
aI667
aI189
aI105
aI254
aI854
aI225
aI638
aI1089
aI146
aI819
aa(lp312
I316
aI322
aI304
aI310
aI310
aI310
aI500
aI334
aI668
aI190
aI106
aI253
aI853
aI226
aI637
aI1090
aI145
aI820
aa(lp313
I317
aI323
aI305
aI311
aI311
aI311
aI501
aI335
aI669
aI191
aI107
aI252
aI852
aI227
aI636
aI1091
aI144
aI821
aa(lp314
I318
aI300
aI306
aI312
aI312
aI312
aI312
aI312
aI312
aI192
aI108
aI263
aI980
aI313
aI981
aI1092
aI155
aI822
aa(lp315
I319
aI301
aI307
aI313
aI313
aI313
aI313
aI313
aI313
aI193
aI109
aI262
aI981
aI312
aI980
aI1093
aI154
aI823
aa(lp316
I320
aI302
aI308
aI314
aI314
aI314
aI314
aI314
aI314
aI194
aI110
aI261
aI982
aI317
aI979
aI1094
aI153
aI824
aa(lp317
I321
aI303
aI309
aI315
aI315
aI315
aI315
aI315
aI315
aI195
aI111
aI260
aI983
aI316
aI978
aI1095
aI152
aI825
aa(lp318
I322
aI304
aI310
aI316
aI316
aI316
aI316
aI316
aI316
aI196
aI112
aI259
aI978
aI315
aI983
aI1096
aI151
aI826
aa(lp319
I323
aI305
aI311
aI317
aI317
aI317
aI317
aI317
aI317
aI197
aI113
aI258
aI979
aI314
aI982
aI1097
aI150
aI827
aa(lp320
I300
aI306
aI312
aI318
aI318
aI318
aI318
aI318
aI318
aI198
aI114
aI269
aI869
aI241
aI653
aI1297
aI321
aI1300
aa(lp321
I301
aI307
aI313
aI319
aI319
aI319
aI319
aI319
aI319
aI199
aI115
aI268
aI868
aI240
aI652
aI1296
aI320
aI1301
aa(lp322
I302
aI308
aI314
aI320
aI320
aI320
aI320
aI320
aI320
aI200
aI116
aI267
aI867
aI245
aI651
aI1301
aI319
aI1296
aa(lp323
I303
aI309
aI315
aI321
aI321
aI321
aI321
aI321
aI321
aI201
aI117
aI266
aI866
aI244
aI650
aI1300
aI318
aI1297
aa(lp324
I304
aI310
aI316
aI322
aI322
aI322
aI322
aI322
aI322
aI202
aI118
aI265
aI865
aI243
aI649
aI1299
aI323
aI1298
aa(lp325
I305
aI311
aI317
aI323
aI323
aI323
aI323
aI323
aI323
aI203
aI119
aI264
aI864
aI242
aI648
aI1298
aI322
aI1299
aa(lp326
I324
aI324
aI324
aI502
aI300
aI1156
aI324
aI324
aI324
aI334
aI208
aI296
aI875
aI259
aI659
aI1104
aI176
aI834
aa(lp327
I325
aI325
aI325
aI503
aI301
aI1157
aI325
aI325
aI325
aI335
aI209
aI297
aI874
aI258
aI658
aI1105
aI177
aI835
aa(lp328
I326
aI326
aI326
aI498
aI302
aI1152
aI326
aI326
aI326
aI330
aI204
aI298
aI873
aI263
aI657
aI1106
aI178
aI836
aa(lp329
I327
aI327
aI327
aI499
aI303
aI1153
aI327
aI327
aI327
aI331
aI205
aI299
aI872
aI262
aI656
aI1107
aI179
aI837
aa(lp330
I328
aI328
aI328
aI500
aI304
aI1154
aI328
aI328
aI328
aI332
aI206
aI294
aI871
aI261
aI655
aI1108
aI174
aI838
aa(lp331
I329
aI329
aI329
aI501
aI305
aI1155
aI329
aI329
aI329
aI333
aI207
aI295
aI870
aI260
aI654
aI1109
aI175
aI839
aa(lp332
I330
aI330
aI330
aI330
aI330
aI330
aI670
aI306
aI502
aI204
aI298
aI326
aI881
aI283
aI665
aI1110
aI200
aI840
aa(lp333
I331
aI331
aI331
aI331
aI331
aI331
aI671
aI307
aI503
aI205
aI299
aI327
aI880
aI282
aI664
aI1111
aI201
aI841
aa(lp334
I332
aI332
aI332
aI332
aI332
aI332
aI666
aI308
aI498
aI206
aI294
aI328
aI879
aI287
aI663
aI1112
aI202
aI842
aa(lp335
I333
aI333
aI333
aI333
aI333
aI333
aI667
aI309
aI499
aI207
aI295
aI329
aI878
aI286
aI662
aI1113
aI203
aI843
aa(lp336
I334
aI334
aI334
aI334
aI334
aI334
aI668
aI310
aI500
aI208
aI296
aI324
aI877
aI285
aI661
aI1114
aI198
aI844
aa(lp337
I335
aI335
aI335
aI335
aI335
aI335
aI669
aI311
aI501
aI209
aI297
aI325
aI876
aI284
aI660
aI1115
aI199
aI845
aa(lp338
I348
aI366
aI355
aI993
aI1033
aI382
aI401
aI564
aI509
aI336
aI336
aI336
aI336
aI336
aI336
aI336
aI336
aI336
aa(lp339
I349
aI367
aI354
aI992
aI1032
aI383
aI400
aI565
aI508
aI337
aI337
aI337
aI337
aI337
aI337
aI337
aI337
aI337
aa(lp340
I350
aI368
aI359
aI991
aI1037
aI378
aI399
aI566
aI507
aI338
aI338
aI338
aI338
aI338
aI338
aI338
aI338
aI338
aa(lp341
I351
aI369
aI358
aI990
aI1036
aI379
aI398
aI567
aI506
aI339
aI339
aI339
aI339
aI339
aI339
aI339
aI339
aI339
aa(lp342
I352
aI370
aI357
aI995
aI1035
aI380
aI397
aI568
aI505
aI340
aI340
aI340
aI340
aI340
aI340
aI340
aI340
aI340
aa(lp343
I353
aI371
aI356
aI994
aI1034
aI381
aI396
aI569
aI504
aI341
aI341
aI341
aI341
aI341
aI341
aI341
aI341
aI341
aa(lp344
I360
aI343
aI361
aI999
aI1039
aI388
aI66
aI510
aI5
aI342
aI342
aI342
aI677
aI426
aI893
aI342
aI342
aI342
aa(lp345
I361
aI342
aI360
aI998
aI1038
aI389
aI67
aI511
aI4
aI343
aI343
aI343
aI676
aI427
aI892
aI343
aI343
aI343
aa(lp346
I362
aI347
aI365
aI997
aI1043
aI384
aI68
aI512
aI3
aI344
aI344
aI344
aI675
aI428
aI891
aI344
aI344
aI344
aa(lp347
I363
aI346
aI364
aI996
aI1042
aI385
aI69
aI513
aI2
aI345
aI345
aI345
aI674
aI429
aI890
aI345
aI345
aI345
aa(lp348
I364
aI345
aI363
aI1001
aI1041
aI386
aI70
aI514
aI1
aI346
aI346
aI346
aI673
aI430
aI889
aI346
aI346
aI346
aa(lp349
I365
aI344
aI362
aI1000
aI1040
aI387
aI71
aI515
aI0
aI347
aI347
aI347
aI672
aI431
aI888
aI347
aI347
aI347
aa(lp350
I366
aI355
aI336
aI2
aI1002
aI36
aI412
aI577
aI519
aI348
aI348
aI348
aI683
aI432
aI899
aI348
aI348
aI348
aa(lp351
I367
aI354
aI337
aI3
aI1003
aI37
aI413
aI576
aI518
aI349
aI349
aI349
aI682
aI433
aI898
aI349
aI349
aI349
aa(lp352
I368
aI359
aI338
aI4
aI1004
aI38
aI408
aI581
aI517
aI350
aI350
aI350
aI681
aI434
aI897
aI350
aI350
aI350
aa(lp353
I369
aI358
aI339
aI5
aI1005
aI39
aI409
aI580
aI516
aI351
aI351
aI351
aI680
aI435
aI896
aI351
aI351
aI351
aa(lp354
I370
aI357
aI340
aI0
aI1006
aI40
aI410
aI579
aI521
aI352
aI352
aI352
aI679
aI436
aI895
aI352
aI352
aI352
aa(lp355
I371
aI356
aI341
aI1
aI1007
aI41
aI411
aI578
aI520
aI353
aI353
aI353
aI678
aI437
aI894
aI353
aI353
aI353
aa(lp356
I337
aI349
aI367
aI1011
aI1045
aI394
aI78
aI522
aI11
aI354
aI354
aI354
aI354
aI354
aI354
aI893
aI462
aI1163
aa(lp357
I336
aI348
aI366
aI1010
aI1044
aI395
aI79
aI523
aI10
aI355
aI355
aI355
aI355
aI355
aI355
aI892
aI463
aI1162
aa(lp358
I341
aI353
aI371
aI1009
aI1049
aI390
aI80
aI524
aI9
aI356
aI356
aI356
aI356
aI356
aI356
aI891
aI464
aI1161
aa(lp359
I340
aI352
aI370
aI1008
aI1048
aI391
aI81
aI525
aI8
aI357
aI357
aI357
aI357
aI357
aI357
aI890
aI465
aI1160
aa(lp360
I339
aI351
aI369
aI1013
aI1047
aI392
aI82
aI526
aI7
aI358
aI358
aI358
aI358
aI358
aI358
aI889
aI466
aI1159
aa(lp361
I338
aI350
aI368
aI1012
aI1046
aI393
aI83
aI527
aI6
aI359
aI359
aI359
aI359
aI359
aI359
aI888
aI467
aI1158
aa(lp362
I343
aI361
aI342
aI8
aI1014
aI48
aI418
aI583
aI531
aI360
aI360
aI360
aI360
aI360
aI360
aI899
aI468
aI1169
aa(lp363
I342
aI360
aI343
aI9
aI1015
aI49
aI419
aI582
aI530
aI361
aI361
aI361
aI361
aI361
aI361
aI898
aI469
aI1168
aa(lp364
I347
aI365
aI344
aI10
aI1016
aI50
aI414
aI587
aI529
aI362
aI362
aI362
aI362
aI362
aI362
aI897
aI470
aI1167
aa(lp365
I346
aI364
aI345
aI11
aI1017
aI51
aI415
aI586
aI528
aI363
aI363
aI363
aI363
aI363
aI363
aI896
aI471
aI1166
aa(lp366
I345
aI363
aI346
aI6
aI1018
aI52
aI416
aI585
aI533
aI364
aI364
aI364
aI364
aI364
aI364
aI895
aI472
aI1165
aa(lp367
I344
aI362
aI347
aI7
aI1019
aI53
aI417
aI584
aI532
aI365
aI365
aI365
aI365
aI365
aI365
aI894
aI473
aI1164
aa(lp368
I355
aI336
aI348
aI14
aI1020
aI54
aI90
aI534
aI20
aI366
aI366
aI366
aI694
aI445
aI910
aI905
aI474
aI1175
aa(lp369
I354
aI337
aI349
aI15
aI1021
aI55
aI91
aI535
aI21
aI367
aI367
aI367
aI695
aI444
aI911
aI904
aI475
aI1174
aa(lp370
I359
aI338
aI350
aI16
aI1022
aI56
aI92
aI536
aI22
aI368
aI368
aI368
aI690
aI449
aI906
aI903
aI476
aI1173
aa(lp371
I358
aI339
aI351
aI17
aI1023
aI57
aI93
aI537
aI23
aI369
aI369
aI369
aI691
aI448
aI907
aI902
aI477
aI1172
aa(lp372
I357
aI340
aI352
aI12
aI1024
aI58
aI94
aI538
aI18
aI370
aI370
aI370
aI692
aI447
aI908
aI901
aI478
aI1171
aa(lp373
I356
aI341
aI353
aI13
aI1025
aI59
aI95
aI539
aI19
aI371
aI371
aI371
aI693
aI446
aI909
aI900
aI479
aI1170
aa(lp374
I378
aI384
aI390
aI1161
aI1027
aI1184
aI96
aI540
aI29
aI462
aI426
aI396
aI372
aI372
aI372
aI372
aI372
aI372
aa(lp375
I379
aI385
aI391
aI1160
aI1026
aI1185
aI97
aI541
aI28
aI463
aI427
aI397
aI373
aI373
aI373
aI373
aI373
aI373
aa(lp376
I380
aI386
aI392
aI1159
aI1031
aI1186
aI98
aI542
aI27
aI464
aI428
aI398
aI374
aI374
aI374
aI374
aI374
aI374
aa(lp377
I381
aI387
aI393
aI1158
aI1030
aI1187
aI99
aI543
aI26
aI465
aI429
aI399
aI375
aI375
aI375
aI375
aI375
aI375
aa(lp378
I382
aI388
aI394
aI1163
aI1029
aI1182
aI100
aI544
aI25
aI466
aI430
aI400
aI376
aI376
aI376
aI376
aI376
aI376
aa(lp379
I383
aI389
aI395
aI1162
aI1028
aI1183
aI101
aI545
aI24
aI467
aI431
aI401
aI377
aI377
aI377
aI377
aI377
aI377
aa(lp380
I384
aI390
aI372
aI338
aI991
aI1037
aI424
aI589
aI549
aI468
aI432
aI402
aI378
aI378
aI378
aI378
aI378
aI378
aa(lp381
I385
aI391
aI373
aI339
aI990
aI1036
aI425
aI588
aI548
aI469
aI433
aI403
aI379
aI379
aI379
aI379
aI379
aI379
aa(lp382
I386
aI392
aI374
aI340
aI995
aI1035
aI420
aI593
aI547
aI470
aI434
aI404
aI380
aI380
aI380
aI380
aI380
aI380
aa(lp383
I387
aI393
aI375
aI341
aI994
aI1034
aI421
aI592
aI546
aI471
aI435
aI405
aI381
aI381
aI381
aI381
aI381
aI381
aa(lp384
I388
aI394
aI376
aI336
aI993
aI1033
aI422
aI591
aI551
aI472
aI436
aI406
aI382
aI382
aI382
aI382
aI382
aI382
aa(lp385
I389
aI395
aI377
aI337
aI992
aI1032
aI423
aI590
aI550
aI473
aI437
aI407
aI383
aI383
aI383
aI383
aI383
aI383
aa(lp386
I390
aI372
aI378
aI344
aI997
aI1043
aI108
aI552
aI38
aI474
aI438
aI408
aI700
aI451
aI916
aI384
aI384
aI384
aa(lp387
I391
aI373
aI379
aI345
aI996
aI1042
aI109
aI553
aI39
aI475
aI439
aI409
aI701
aI450
aI917
aI385
aI385
aI385
aa(lp388
I392
aI374
aI380
aI346
aI1001
aI1041
aI110
aI554
aI40
aI476
aI440
aI410
aI696
aI455
aI912
aI386
aI386
aI386
aa(lp389
I393
aI375
aI381
aI347
aI1000
aI1040
aI111
aI555
aI41
aI477
aI441
aI411
aI697
aI454
aI913
aI387
aI387
aI387
aa(lp390
I394
aI376
aI382
aI342
aI999
aI1039
aI112
aI556
aI36
aI478
aI442
aI412
aI698
aI453
aI914
aI388
aI388
aI388
aa(lp391
I395
aI377
aI383
aI343
aI998
aI1038
aI113
aI557
aI37
aI479
aI443
aI413
aI699
aI452
aI915
aI389
aI389
aI389
aa(lp392
I372
aI378
aI384
aI356
aI1009
aI1049
aI114
aI558
aI50
aI480
aI444
aI414
aI390
aI390
aI390
aI916
aI487
aI1186
aa(lp393
I373
aI379
aI385
aI357
aI1008
aI1048
aI115
aI559
aI51
aI481
aI445
aI415
aI391
aI391
aI391
aI917
aI486
aI1187
aa(lp394
I374
aI380
aI386
aI358
aI1013
aI1047
aI116
aI560
aI52
aI482
aI446
aI416
aI392
aI392
aI392
aI912
aI491
aI1182
aa(lp395
I375
aI381
aI387
aI359
aI1012
aI1046
aI117
aI561
aI53
aI483
aI447
aI417
aI393
aI393
aI393
aI913
aI490
aI1183
aa(lp396
I376
aI382
aI388
aI354
aI1011
aI1045
aI118
aI562
aI48
aI484
aI448
aI418
aI394
aI394
aI394
aI914
aI489
aI1184
aa(lp397
I377
aI383
aI389
aI355
aI1010
aI1044
aI119
aI563
aI49
aI485
aI449
aI419
aI395
aI395
aI395
aI915
aI488
aI1185
aa(lp398
I402
aI408
aI414
aI1053
aI1074
aI423
aI569
aI504
aI341
aI372
aI462
aI426
aI396
aI396
aI396
aI396
aI396
aI396
aa(lp399
I403
aI409
aI415
aI1052
aI1075
aI422
aI568
aI505
aI340
aI373
aI463
aI427
aI397
aI397
aI397
aI397
aI397
aI397
aa(lp400
I404
aI410
aI416
aI1051
aI1076
aI421
aI567
aI506
aI339
aI374
aI464
aI428
aI398
aI398
aI398
aI398
aI398
aI398
aa(lp401
I405
aI411
aI417
aI1050
aI1077
aI420
aI566
aI507
aI338
aI375
aI465
aI429
aI399
aI399
aI399
aI399
aI399
aI399
aa(lp402
I406
aI412
aI418
aI1055
aI1078
aI425
aI565
aI508
aI337
aI376
aI466
aI430
aI400
aI400
aI400
aI400
aI400
aI400
aa(lp403
I407
aI413
aI419
aI1054
aI1079
aI424
aI564
aI509
aI336
aI377
aI467
aI431
aI401
aI401
aI401
aI401
aI401
aI401
aa(lp404
I408
aI414
aI396
aI62
aI1056
aI107
aI704
aI571
aI681
aI378
aI468
aI432
aI402
aI402
aI402
aI402
aI402
aI402
aa(lp405
I409
aI415
aI397
aI63
aI1057
aI106
aI705
aI570
aI680
aI379
aI469
aI433
aI403
aI403
aI403
aI403
aI403
aI403
aa(lp406
I410
aI416
aI398
aI64
aI1058
aI105
aI706
aI575
aI679
aI380
aI470
aI434
aI404
aI404
aI404
aI404
aI404
aI404
aa(lp407
I411
aI417
aI399
aI65
aI1059
aI104
aI707
aI574
aI678
aI381
aI471
aI435
aI405
aI405
aI405
aI405
aI405
aI405
aa(lp408
I412
aI418
aI400
aI60
aI1060
aI103
aI702
aI573
aI683
aI382
aI472
aI436
aI406
aI406
aI406
aI406
aI406
aI406
aa(lp409
I413
aI419
aI401
aI61
aI1061
aI102
aI703
aI572
aI682
aI383
aI473
aI437
aI407
aI407
aI407
aI407
aI407
aI407
aa(lp410
I414
aI396
aI402
aI68
aI1062
aI113
aI581
aI517
aI350
aI384
aI474
aI438
aI706
aI457
aI922
aI408
aI408
aI408
aa(lp411
I415
aI397
aI403
aI69
aI1063
aI112
aI580
aI516
aI351
aI385
aI475
aI439
aI707
aI456
aI923
aI409
aI409
aI409
aa(lp412
I416
aI398
aI404
aI70
aI1064
aI111
aI579
aI521
aI352
aI386
aI476
aI440
aI702
aI461
aI918
aI410
aI410
aI410
aa(lp413
I417
aI399
aI405
aI71
aI1065
aI110
aI578
aI520
aI353
aI387
aI477
aI441
aI703
aI460
aI919
aI411
aI411
aI411
aa(lp414
I418
aI400
aI406
aI66
aI1066
aI109
aI577
aI519
aI348
aI388
aI478
aI442
aI704
aI459
aI920
aI412
aI412
aI412
aa(lp415
I419
aI401
aI407
aI67
aI1067
aI108
aI576
aI518
aI349
aI389
aI479
aI443
aI705
aI458
aI921
aI413
aI413
aI413
aa(lp416
I396
aI402
aI408
aI80
aI1068
aI119
aI587
aI529
aI362
aI390
aI480
aI444
aI414
aI414
aI414
aI922
aI493
aI1192
aa(lp417
I397
aI403
aI409
aI81
aI1069
aI118
aI586
aI528
aI363
aI391
aI481
aI445
aI415
aI415
aI415
aI923
aI492
aI1193
aa(lp418
I398
aI404
aI410
aI82
aI1070
aI117
aI585
aI533
aI364
aI392
aI482
aI446
aI416
aI416
aI416
aI918
aI497
aI1188
aa(lp419
I399
aI405
aI411
aI83
aI1071
aI116
aI584
aI532
aI365
aI393
aI483
aI447
aI417
aI417
aI417
aI919
aI496
aI1189
aa(lp420
I400
aI406
aI412
aI78
aI1072
aI115
aI583
aI531
aI360
aI394
aI484
aI448
aI418
aI418
aI418
aI920
aI495
aI1190
aa(lp421
I401
aI407
aI413
aI79
aI1073
aI114
aI582
aI530
aI361
aI395
aI485
aI449
aI419
aI419
aI419
aI921
aI494
aI1191
aa(lp422
I420
aI420
aI420
aI399
aI1050
aI1077
aI593
aI547
aI380
aI487
aI498
aI456
aI420
aI420
aI420
aI420
aI420
aI420
aa(lp423
I421
aI421
aI421
aI398
aI1051
aI1076
aI592
aI546
aI381
aI486
aI499
aI457
aI421
aI421
aI421
aI421
aI421
aI421
aa(lp424
I422
aI422
aI422
aI397
aI1052
aI1075
aI591
aI551
aI382
aI491
aI500
aI458
aI422
aI422
aI422
aI422
aI422
aI422
aa(lp425
I423
aI423
aI423
aI396
aI1053
aI1074
aI590
aI550
aI383
aI490
aI501
aI459
aI423
aI423
aI423
aI423
aI423
aI423
aa(lp426
I424
aI424
aI424
aI401
aI1054
aI1079
aI589
aI549
aI378
aI489
aI502
aI460
aI424
aI424
aI424
aI424
aI424
aI424
aa(lp427
I425
aI425
aI425
aI400
aI1055
aI1078
aI588
aI548
aI379
aI488
aI503
aI461
aI425
aI425
aI425
aI425
aI425
aI425
aa(lp428
I432
aI438
aI444
aI1083
aI1104
aI453
aI185
aI594
aI125
aI396
aI372
aI462
aI893
aI342
aI677
aI426
aI426
aI426
aa(lp429
I433
aI439
aI445
aI1082
aI1105
aI452
aI184
aI595
aI124
aI397
aI373
aI463
aI892
aI343
aI676
aI427
aI427
aI427
aa(lp430
I434
aI440
aI446
aI1081
aI1106
aI451
aI183
aI596
aI123
aI398
aI374
aI464
aI891
aI344
aI675
aI428
aI428
aI428
aa(lp431
I435
aI441
aI447
aI1080
aI1107
aI450
aI182
aI597
aI122
aI399
aI375
aI465
aI890
aI345
aI674
aI429
aI429
aI429
aa(lp432
I436
aI442
aI448
aI1085
aI1108
aI455
aI181
aI598
aI121
aI400
aI376
aI466
aI889
aI346
aI673
aI430
aI430
aI430
aa(lp433
I437
aI443
aI449
aI1084
aI1109
aI454
aI180
aI599
aI120
aI401
aI377
aI467
aI888
aI347
aI672
aI431
aI431
aI431
aa(lp434
I438
aI444
aI426
aI122
aI1086
aI167
aI459
aI624
aI603
aI402
aI378
aI468
aI899
aI348
aI683
aI432
aI432
aI432
aa(lp435
I439
aI445
aI427
aI123
aI1087
aI166
aI458
aI625
aI602
aI403
aI379
aI469
aI898
aI349
aI682
aI433
aI433
aI433
aa(lp436
I440
aI446
aI428
aI124
aI1088
aI165
aI457
aI626
aI601
aI404
aI380
aI470
aI897
aI350
aI681
aI434
aI434
aI434
aa(lp437
I441
aI447
aI429
aI125
aI1089
aI164
aI456
aI627
aI600
aI405
aI381
aI471
aI896
aI351
aI680
aI435
aI435
aI435
aa(lp438
I442
aI448
aI430
aI120
aI1090
aI163
aI461
aI628
aI605
aI406
aI382
aI472
aI895
aI352
aI679
aI436
aI436
aI436
aa(lp439
I443
aI449
aI431
aI121
aI1091
aI162
aI460
aI629
aI604
aI407
aI383
aI473
aI894
aI353
aI678
aI437
aI437
aI437
aa(lp440
I444
aI426
aI432
aI128
aI1092
aI173
aI197
aI606
aI134
aI408
aI384
aI474
aI986
aI439
aI987
aI438
aI438
aI438
aa(lp441
I445
aI427
aI433
aI129
aI1093
aI172
aI196
aI607
aI135
aI409
aI385
aI475
aI987
aI438
aI986
aI439
aI439
aI439
aa(lp442
I446
aI428
aI434
aI130
aI1094
aI171
aI195
aI608
aI136
aI410
aI386
aI476
aI988
aI443
aI985
aI440
aI440
aI440
aa(lp443
I447
aI429
aI435
aI131
aI1095
aI170
aI194
aI609
aI137
aI411
aI387
aI477
aI989
aI442
aI984
aI441
aI441
aI441
aa(lp444
I448
aI430
aI436
aI126
aI1096
aI169
aI193
aI610
aI132
aI412
aI388
aI478
aI984
aI441
aI989
aI442
aI442
aI442
aa(lp445
I449
aI431
aI437
aI127
aI1097
aI168
aI192
aI611
aI133
aI413
aI389
aI479
aI985
aI440
aI988
aI443
aI443
aI443
aa(lp446
I426
aI432
aI438
aI140
aI1098
aI179
aI203
aI612
aI146
aI414
aI390
aI480
aI911
aI367
aI695
aI928
aI499
aI1198
aa(lp447
I427
aI433
aI439
aI141
aI1099
aI178
aI202
aI613
aI147
aI415
aI391
aI481
aI910
aI366
aI694
aI929
aI498
aI1199
aa(lp448
I428
aI434
aI440
aI142
aI1100
aI177
aI201
aI614
aI148
aI416
aI392
aI482
aI909
aI371
aI693
aI924
aI503
aI1194
aa(lp449
I429
aI435
aI441
aI143
aI1101
aI176
aI200
aI615
aI149
aI417
aI393
aI483
aI908
aI370
aI692
aI925
aI502
aI1195
aa(lp450
I430
aI436
aI442
aI138
aI1102
aI175
aI199
aI616
aI144
aI418
aI394
aI484
aI907
aI369
aI691
aI926
aI501
aI1196
aa(lp451
I431
aI437
aI443
aI139
aI1103
aI174
aI198
aI617
aI145
aI419
aI395
aI485
aI906
aI368
aI690
aI927
aI500
aI1197
aa(lp452
I450
aI450
aI450
aI429
aI1080
aI1107
aI209
aI618
aI164
aI493
aI451
aI492
aI917
aI385
aI701
aI450
aI450
aI450
aa(lp453
I451
aI451
aI451
aI428
aI1081
aI1106
aI208
aI619
aI165
aI492
aI450
aI493
aI916
aI384
aI700
aI451
aI451
aI451
aa(lp454
I452
aI452
aI452
aI427
aI1082
aI1105
aI207
aI620
aI166
aI497
aI455
aI494
aI915
aI389
aI699
aI452
aI452
aI452
aa(lp455
I453
aI453
aI453
aI426
aI1083
aI1104
aI206
aI621
aI167
aI496
aI454
aI495
aI914
aI388
aI698
aI453
aI453
aI453
aa(lp456
I454
aI454
aI454
aI431
aI1084
aI1109
aI205
aI622
aI162
aI495
aI453
aI496
aI913
aI387
aI697
aI454
aI454
aI454
aa(lp457
I455
aI455
aI455
aI430
aI1085
aI1108
aI204
aI623
aI163
aI494
aI452
aI497
aI912
aI386
aI696
aI455
aI455
aI455
aa(lp458
I456
aI456
aI456
aI182
aI1110
aI206
aI627
aI600
aI435
aI420
aI487
aI498
aI923
aI409
aI707
aI456
aI456
aI456
aa(lp459
I457
aI457
aI457
aI183
aI1111
aI207
aI626
aI601
aI434
aI421
aI486
aI499
aI922
aI408
aI706
aI457
aI457
aI457
aa(lp460
I458
aI458
aI458
aI184
aI1112
aI208
aI625
aI602
aI433
aI422
aI491
aI500
aI921
aI413
aI705
aI458
aI458
aI458
aa(lp461
I459
aI459
aI459
aI185
aI1113
aI209
aI624
aI603
aI432
aI423
aI490
aI501
aI920
aI412
aI704
aI459
aI459
aI459
aa(lp462
I460
aI460
aI460
aI180
aI1114
aI204
aI629
aI604
aI437
aI424
aI489
aI502
aI919
aI411
aI703
aI460
aI460
aI460
aa(lp463
I461
aI461
aI461
aI181
aI1115
aI205
aI628
aI605
aI436
aI425
aI488
aI503
aI918
aI410
aI702
aI461
aI461
aI461
aa(lp464
I468
aI474
aI480
aI1119
aI1140
aI489
aI275
aI630
aI215
aI426
aI396
aI372
aI462
aI462
aI462
aI1163
aI354
aI893
aa(lp465
I469
aI475
aI481
aI1118
aI1141
aI488
aI274
aI631
aI214
aI427
aI397
aI373
aI463
aI463
aI463
aI1162
aI355
aI892
aa(lp466
I470
aI476
aI482
aI1117
aI1142
aI487
aI273
aI632
aI213
aI428
aI398
aI374
aI464
aI464
aI464
aI1161
aI356
aI891
aa(lp467
I471
aI477
aI483
aI1116
aI1143
aI486
aI272
aI633
aI212
aI429
aI399
aI375
aI465
aI465
aI465
aI1160
aI357
aI890
aa(lp468
I472
aI478
aI484
aI1121
aI1144
aI491
aI271
aI634
aI211
aI430
aI400
aI376
aI466
aI466
aI466
aI1159
aI358
aI889
aa(lp469
I473
aI479
aI485
aI1120
aI1145
aI490
aI270
aI635
aI210
aI431
aI401
aI377
aI467
aI467
aI467
aI1158
aI359
aI888
aa(lp470
I474
aI480
aI462
aI212
aI1122
aI257
aI495
aI660
aI639
aI432
aI402
aI378
aI468
aI468
aI468
aI1169
aI360
aI899
aa(lp471
I475
aI481
aI463
aI213
aI1123
aI256
aI494
aI661
aI638
aI433
aI403
aI379
aI469
aI469
aI469
aI1168
aI361
aI898
aa(lp472
I476
aI482
aI464
aI214
aI1124
aI255
aI493
aI662
aI637
aI434
aI404
aI380
aI470
aI470
aI470
aI1167
aI362
aI897
aa(lp473
I477
aI483
aI465
aI215
aI1125
aI254
aI492
aI663
aI636
aI435
aI405
aI381
aI471
aI471
aI471
aI1166
aI363
aI896
aa(lp474
I478
aI484
aI466
aI210
aI1126
aI253
aI497
aI664
aI641
aI436
aI406
aI382
aI472
aI472
aI472
aI1165
aI364
aI895
aa(lp475
I479
aI485
aI467
aI211
aI1127
aI252
aI496
aI665
aI640
aI437
aI407
aI383
aI473
aI473
aI473
aI1164
aI365
aI894
aa(lp476
I480
aI462
aI468
aI218
aI1128
aI263
aI287
aI642
aI224
aI438
aI408
aI384
aI718
aI498
aI934
aI1175
aI366
aI905
aa(lp477
I481
aI463
aI469
aI219
aI1129
aI262
aI286
aI643
aI225
aI439
aI409
aI385
aI719
aI499
aI935
aI1174
aI367
aI904
aa(lp478
I482
aI464
aI470
aI220
aI1130
aI261
aI285
aI644
aI226
aI440
aI410
aI386
aI714
aI500
aI930
aI1173
aI368
aI903
aa(lp479
I483
aI465
aI471
aI221
aI1131
aI260
aI284
aI645
aI227
aI441
aI411
aI387
aI715
aI501
aI931
aI1172
aI369
aI902
aa(lp480
I484
aI466
aI472
aI216
aI1132
aI259
aI283
aI646
aI222
aI442
aI412
aI388
aI716
aI502
aI932
aI1171
aI370
aI901
aa(lp481
I485
aI467
aI473
aI217
aI1133
aI258
aI282
aI647
aI223
aI443
aI413
aI389
aI717
aI503
aI933
aI1170
aI371
aI900
aa(lp482
I462
aI468
aI474
aI230
aI1134
aI269
aI293
aI648
aI236
aI444
aI414
aI390
aI480
aI480
aI480
aI1310
aI481
aI1311
aa(lp483
I463
aI469
aI475
aI231
aI1135
aI268
aI292
aI649
aI237
aI445
aI415
aI391
aI481
aI481
aI481
aI1311
aI480
aI1310
aa(lp484
I464
aI470
aI476
aI232
aI1136
aI267
aI291
aI650
aI238
aI446
aI416
aI392
aI482
aI482
aI482
aI1312
aI485
aI1309
aa(lp485
I465
aI471
aI477
aI233
aI1137
aI266
aI290
aI651
aI239
aI447
aI417
aI393
aI483
aI483
aI483
aI1313
aI484
aI1308
aa(lp486
I466
aI472
aI478
aI228
aI1138
aI265
aI289
aI652
aI234
aI448
aI418
aI394
aI484
aI484
aI484
aI1308
aI483
aI1313
aa(lp487
I467
aI473
aI479
aI229
aI1139
aI264
aI288
aI653
aI235
aI449
aI419
aI395
aI485
aI485
aI485
aI1309
aI482
aI1312
aa(lp488
I486
aI486
aI486
aI465
aI1116
aI1143
aI299
aI654
aI254
aI499
aI457
aI421
aI486
aI486
aI486
aI1187
aI391
aI917
aa(lp489
I487
aI487
aI487
aI464
aI1117
aI1142
aI298
aI655
aI255
aI498
aI456
aI420
aI487
aI487
aI487
aI1186
aI390
aI916
aa(lp490
I488
aI488
aI488
aI463
aI1118
aI1141
aI297
aI656
aI256
aI503
aI461
aI425
aI488
aI488
aI488
aI1185
aI395
aI915
aa(lp491
I489
aI489
aI489
aI462
aI1119
aI1140
aI296
aI657
aI257
aI502
aI460
aI424
aI489
aI489
aI489
aI1184
aI394
aI914
aa(lp492
I490
aI490
aI490
aI467
aI1120
aI1145
aI295
aI658
aI252
aI501
aI459
aI423
aI490
aI490
aI490
aI1183
aI393
aI913
aa(lp493
I491
aI491
aI491
aI466
aI1121
aI1144
aI294
aI659
aI253
aI500
aI458
aI422
aI491
aI491
aI491
aI1182
aI392
aI912
aa(lp494
I492
aI492
aI492
aI272
aI1146
aI296
aI663
aI636
aI471
aI450
aI493
aI451
aI492
aI492
aI492
aI1193
aI415
aI923
aa(lp495
I493
aI493
aI493
aI273
aI1147
aI297
aI662
aI637
aI470
aI451
aI492
aI450
aI493
aI493
aI493
aI1192
aI414
aI922
aa(lp496
I494
aI494
aI494
aI274
aI1148
aI298
aI661
aI638
aI469
aI452
aI497
aI455
aI494
aI494
aI494
aI1191
aI419
aI921
aa(lp497
I495
aI495
aI495
aI275
aI1149
aI299
aI660
aI639
aI468
aI453
aI496
aI454
aI495
aI495
aI495
aI1190
aI418
aI920
aa(lp498
I496
aI496
aI496
aI270
aI1150
aI294
aI665
aI640
aI473
aI454
aI495
aI453
aI496
aI496
aI496
aI1189
aI417
aI919
aa(lp499
I497
aI497
aI497
aI271
aI1151
aI295
aI664
aI641
aI472
aI455
aI494
aI452
aI497
aI497
aI497
aI1188
aI416
aI918
aa(lp500
I498
aI498
aI498
aI302
aI1152
aI326
aI332
aI666
aI308
aI456
aI420
aI487
aI934
aI474
aI718
aI1199
aI445
aI929
aa(lp501
I499
aI499
aI499
aI303
aI1153
aI327
aI333
aI667
aI309
aI457
aI421
aI486
aI935
aI475
aI719
aI1198
aI444
aI928
aa(lp502
I500
aI500
aI500
aI304
aI1154
aI328
aI334
aI668
aI310
aI458
aI422
aI491
aI930
aI476
aI714
aI1197
aI449
aI927
aa(lp503
I501
aI501
aI501
aI305
aI1155
aI329
aI335
aI669
aI311
aI459
aI423
aI490
aI931
aI477
aI715
aI1196
aI448
aI926
aa(lp504
I502
aI502
aI502
aI300
aI1156
aI324
aI330
aI670
aI306
aI460
aI424
aI489
aI932
aI478
aI716
aI1195
aI447
aI925
aa(lp505
I503
aI503
aI503
aI301
aI1157
aI325
aI331
aI671
aI307
aI461
aI425
aI488
aI933
aI479
aI717
aI1194
aI446
aI924
aa(lp506
I516
aI534
aI523
aI1216
aI547
aI679
aI341
aI396
aI569
aI504
aI504
aI504
aI120
aI720
aI0
aI504
aI504
aI504
aa(lp507
I517
aI535
aI522
aI1217
aI546
aI678
aI340
aI397
aI568
aI505
aI505
aI505
aI121
aI721
aI1
aI505
aI505
aI505
aa(lp508
I518
aI536
aI527
aI1212
aI551
aI683
aI339
aI398
aI567
aI506
aI506
aI506
aI122
aI722
aI2
aI506
aI506
aI506
aa(lp509
I519
aI537
aI526
aI1213
aI550
aI682
aI338
aI399
aI566
aI507
aI507
aI507
aI123
aI723
aI3
aI507
aI507
aI507
aa(lp510
I520
aI538
aI525
aI1214
aI549
aI681
aI337
aI400
aI565
aI508
aI508
aI508
aI124
aI724
aI4
aI508
aI508
aI508
aa(lp511
I521
aI539
aI524
aI1215
aI548
aI680
aI336
aI401
aI564
aI509
aI509
aI509
aI125
aI725
aI5
aI509
aI509
aI509
aa(lp512
I528
aI511
aI529
aI1222
aI553
aI685
aI5
aI342
aI66
aI510
aI510
aI510
aI599
aI810
aI731
aI510
aI510
aI510
aa(lp513
I529
aI510
aI528
aI1223
aI552
aI684
aI4
aI343
aI67
aI511
aI511
aI511
aI598
aI811
aI730
aI511
aI511
aI511
aa(lp514
I530
aI515
aI533
aI1218
aI557
aI689
aI3
aI344
aI68
aI512
aI512
aI512
aI597
aI812
aI729
aI512
aI512
aI512
aa(lp515
I531
aI514
aI532
aI1219
aI556
aI688
aI2
aI345
aI69
aI513
aI513
aI513
aI596
aI813
aI728
aI513
aI513
aI513
aa(lp516
I532
aI513
aI531
aI1220
aI555
aI687
aI1
aI346
aI70
aI514
aI514
aI514
aI595
aI814
aI727
aI514
aI514
aI514
aa(lp517
I533
aI512
aI530
aI1221
aI554
aI686
aI0
aI347
aI71
aI515
aI515
aI515
aI594
aI815
aI726
aI515
aI515
aI515
aa(lp518
I534
aI523
aI504
aI516
aI516
aI516
aI351
aI409
aI580
aI516
aI516
aI516
aI605
aI816
aI737
aI516
aI516
aI516
aa(lp519
I535
aI522
aI505
aI517
aI517
aI517
aI350
aI408
aI581
aI517
aI517
aI517
aI604
aI817
aI736
aI517
aI517
aI517
aa(lp520
I536
aI527
aI506
aI518
aI518
aI518
aI349
aI413
aI576
aI518
aI518
aI518
aI603
aI818
aI735
aI518
aI518
aI518
aa(lp521
I537
aI526
aI507
aI519
aI519
aI519
aI348
aI412
aI577
aI519
aI519
aI519
aI602
aI819
aI734
aI519
aI519
aI519
aa(lp522
I538
aI525
aI508
aI520
aI520
aI520
aI353
aI411
aI578
aI520
aI520
aI520
aI601
aI820
aI733
aI520
aI520
aI520
aa(lp523
I539
aI524
aI509
aI521
aI521
aI521
aI352
aI410
aI579
aI521
aI521
aI521
aI600
aI821
aI732
aI521
aI521
aI521
aa(lp524
I505
aI517
aI535
aI1228
aI559
aI691
aI11
aI354
aI78
aI522
aI522
aI522
aI138
aI738
aI17
aI941
aI630
aI1211
aa(lp525
I504
aI516
aI534
aI1229
aI558
aI690
aI10
aI355
aI79
aI523
aI523
aI523
aI139
aI739
aI16
aI940
aI631
aI1210
aa(lp526
I509
aI521
aI539
aI1224
aI563
aI695
aI9
aI356
aI80
aI524
aI524
aI524
aI140
aI740
aI15
aI939
aI632
aI1209
aa(lp527
I508
aI520
aI538
aI1225
aI562
aI694
aI8
aI357
aI81
aI525
aI525
aI525
aI141
aI741
aI14
aI938
aI633
aI1208
aa(lp528
I507
aI519
aI537
aI1226
aI561
aI693
aI7
aI358
aI82
aI526
aI526
aI526
aI142
aI742
aI13
aI937
aI634
aI1207
aa(lp529
I506
aI518
aI536
aI1227
aI560
aI692
aI6
aI359
aI83
aI527
aI527
aI527
aI143
aI743
aI12
aI936
aI635
aI1206
aa(lp530
I511
aI529
aI510
aI528
aI528
aI528
aI363
aI415
aI586
aI528
aI528
aI528
aI144
aI744
aI23
aI947
aI636
aI1217
aa(lp531
I510
aI528
aI511
aI529
aI529
aI529
aI362
aI414
aI587
aI529
aI529
aI529
aI145
aI745
aI22
aI946
aI637
aI1216
aa(lp532
I515
aI533
aI512
aI530
aI530
aI530
aI361
aI419
aI582
aI530
aI530
aI530
aI146
aI746
aI21
aI945
aI638
aI1215
aa(lp533
I514
aI532
aI513
aI531
aI531
aI531
aI360
aI418
aI583
aI531
aI531
aI531
aI147
aI747
aI20
aI944
aI639
aI1214
aa(lp534
I513
aI531
aI514
aI532
aI532
aI532
aI365
aI417
aI584
aI532
aI532
aI532
aI148
aI748
aI19
aI943
aI640
aI1213
aa(lp535
I512
aI530
aI515
aI533
aI533
aI533
aI364
aI416
aI585
aI533
aI533
aI533
aI149
aI749
aI18
aI942
aI641
aI1212
aa(lp536
I523
aI504
aI516
aI534
aI534
aI534
aI20
aI366
aI90
aI534
aI534
aI534
aI616
aI829
aI753
aI953
aI642
aI1223
aa(lp537
I522
aI505
aI517
aI535
aI535
aI535
aI21
aI367
aI91
aI535
aI535
aI535
aI617
aI828
aI752
aI952
aI643
aI1222
aa(lp538
I527
aI506
aI518
aI536
aI536
aI536
aI22
aI368
aI92
aI536
aI536
aI536
aI612
aI833
aI751
aI951
aI644
aI1221
aa(lp539
I526
aI507
aI519
aI537
aI537
aI537
aI23
aI369
aI93
aI537
aI537
aI537
aI613
aI832
aI750
aI950
aI645
aI1220
aa(lp540
I525
aI508
aI520
aI538
aI538
aI538
aI18
aI370
aI94
aI538
aI538
aI538
aI614
aI831
aI755
aI949
aI646
aI1219
aa(lp541
I524
aI509
aI521
aI539
aI539
aI539
aI19
aI371
aI95
aI539
aI539
aI539
aI615
aI830
aI754
aI948
aI647
aI1218
aa(lp542
I546
aI552
aI558
aI1258
aI541
aI1259
aI29
aI372
aI96
aI630
aI594
aI564
aI156
aI756
aI35
aI540
aI540
aI540
aa(lp543
I547
aI553
aI559
aI1259
aI540
aI1258
aI28
aI373
aI97
aI631
aI595
aI565
aI157
aI757
aI34
aI541
aI541
aI541
aa(lp544
I548
aI554
aI560
aI1254
aI545
aI1257
aI27
aI374
aI98
aI632
aI596
aI566
aI158
aI758
aI33
aI542
aI542
aI542
aa(lp545
I549
aI555
aI561
aI1255
aI544
aI1256
aI26
aI375
aI99
aI633
aI597
aI567
aI159
aI759
aI32
aI543
aI543
aI543
aa(lp546
I550
aI556
aI562
aI1256
aI543
aI1255
aI25
aI376
aI100
aI634
aI598
aI568
aI160
aI760
aI31
aI544
aI544
aI544
aa(lp547
I551
aI557
aI563
aI1257
aI542
aI1254
aI24
aI377
aI101
aI635
aI599
aI569
aI161
aI761
aI30
aI545
aI545
aI545
aa(lp548
I552
aI558
aI540
aI678
aI505
aI1217
aI381
aI421
aI592
aI636
aI600
aI570
aI162
aI762
aI41
aI546
aI546
aI546
aa(lp549
I553
aI559
aI541
aI679
aI504
aI1216
aI380
aI420
aI593
aI637
aI601
aI571
aI163
aI763
aI40
aI547
aI547
aI547
aa(lp550
I554
aI560
aI542
aI680
aI509
aI1215
aI379
aI425
aI588
aI638
aI602
aI572
aI164
aI764
aI39
aI548
aI548
aI548
aa(lp551
I555
aI561
aI543
aI681
aI508
aI1214
aI378
aI424
aI589
aI639
aI603
aI573
aI165
aI765
aI38
aI549
aI549
aI549
aa(lp552
I556
aI562
aI544
aI682
aI507
aI1213
aI383
aI423
aI590
aI640
aI604
aI574
aI166
aI766
aI37
aI550
aI550
aI550
aa(lp553
I557
aI563
aI545
aI683
aI506
aI1212
aI382
aI422
aI591
aI641
aI605
aI575
aI167
aI767
aI36
aI551
aI551
aI551
aa(lp554
I558
aI540
aI546
aI684
aI511
aI1223
aI38
aI384
aI108
aI642
aI606
aI576
aI622
aI835
aI771
aI552
aI552
aI552
aa(lp555
I559
aI541
aI547
aI685
aI510
aI1222
aI39
aI385
aI109
aI643
aI607
aI577
aI623
aI834
aI770
aI553
aI553
aI553
aa(lp556
I560
aI542
aI548
aI686
aI515
aI1221
aI40
aI386
aI110
aI644
aI608
aI578
aI618
aI839
aI769
aI554
aI554
aI554
aa(lp557
I561
aI543
aI549
aI687
aI514
aI1220
aI41
aI387
aI111
aI645
aI609
aI579
aI619
aI838
aI768
aI555
aI555
aI555
aa(lp558
I562
aI544
aI550
aI688
aI513
aI1219
aI36
aI388
aI112
aI646
aI610
aI580
aI620
aI837
aI773
aI556
aI556
aI556
aa(lp559
I563
aI545
aI551
aI689
aI512
aI1218
aI37
aI389
aI113
aI647
aI611
aI581
aI621
aI836
aI772
aI557
aI557
aI557
aa(lp560
I540
aI546
aI552
aI690
aI523
aI1229
aI50
aI390
aI114
aI648
aI612
aI582
aI174
aI774
aI56
aI964
aI655
aI1234
aa(lp561
I541
aI547
aI553
aI691
aI522
aI1228
aI51
aI391
aI115
aI649
aI613
aI583
aI175
aI775
aI57
aI965
aI654
aI1235
aa(lp562
I542
aI548
aI554
aI692
aI527
aI1227
aI52
aI392
aI116
aI650
aI614
aI584
aI176
aI776
aI58
aI960
aI659
aI1230
aa(lp563
I543
aI549
aI555
aI693
aI526
aI1226
aI53
aI393
aI117
aI651
aI615
aI585
aI177
aI777
aI59
aI961
aI658
aI1231
aa(lp564
I544
aI550
aI556
aI694
aI525
aI1225
aI48
aI394
aI118
aI652
aI616
aI586
aI178
aI778
aI54
aI962
aI657
aI1232
aa(lp565
I545
aI551
aI557
aI695
aI524
aI1224
aI49
aI395
aI119
aI653
aI617
aI587
aI179
aI779
aI55
aI963
aI656
aI1233
aa(lp566
I570
aI576
aI582
aI1240
aI588
aI703
aI509
aI336
aI401
aI540
aI630
aI594
aI180
aI780
aI71
aI564
aI564
aI564
aa(lp567
I571
aI577
aI583
aI1241
aI589
aI702
aI508
aI337
aI400
aI541
aI631
aI595
aI181
aI781
aI70
aI565
aI565
aI565
aa(lp568
I572
aI578
aI584
aI1236
aI590
aI707
aI507
aI338
aI399
aI542
aI632
aI596
aI182
aI782
aI69
aI566
aI566
aI566
aa(lp569
I573
aI579
aI585
aI1237
aI591
aI706
aI506
aI339
aI398
aI543
aI633
aI597
aI183
aI783
aI68
aI567
aI567
aI567
aa(lp570
I574
aI580
aI586
aI1238
aI592
aI705
aI505
aI340
aI397
aI544
aI634
aI598
aI184
aI784
aI67
aI568
aI568
aI568
aa(lp571
I575
aI581
aI587
aI1239
aI593
aI704
aI504
aI341
aI396
aI545
aI635
aI599
aI185
aI785
aI66
aI569
aI569
aI569
aa(lp572
I576
aI582
aI564
aI570
aI570
aI570
aI680
aI403
aI705
aI546
aI636
aI600
aI186
aI786
aI77
aI570
aI570
aI570
aa(lp573
I577
aI583
aI565
aI571
aI571
aI571
aI681
aI402
aI704
aI547
aI637
aI601
aI187
aI787
aI76
aI571
aI571
aI571
aa(lp574
I578
aI584
aI566
aI572
aI572
aI572
aI682
aI407
aI703
aI548
aI638
aI602
aI188
aI788
aI75
aI572
aI572
aI572
aa(lp575
I579
aI585
aI567
aI573
aI573
aI573
aI683
aI406
aI702
aI549
aI639
aI603
aI189
aI789
aI74
aI573
aI573
aI573
aa(lp576
I580
aI586
aI568
aI574
aI574
aI574
aI678
aI405
aI707
aI550
aI640
aI604
aI190
aI790
aI73
aI574
aI574
aI574
aa(lp577
I581
aI587
aI569
aI575
aI575
aI575
aI679
aI404
aI706
aI551
aI641
aI605
aI191
aI791
aI72
aI575
aI575
aI575
aa(lp578
I582
aI564
aI570
aI576
aI576
aI576
aI518
aI349
aI413
aI552
aI642
aI606
aI628
aI841
aI795
aI576
aI576
aI576
aa(lp579
I583
aI565
aI571
aI577
aI577
aI577
aI519
aI348
aI412
aI553
aI643
aI607
aI629
aI840
aI794
aI577
aI577
aI577
aa(lp580
I584
aI566
aI572
aI578
aI578
aI578
aI520
aI353
aI411
aI554
aI644
aI608
aI624
aI845
aI793
aI578
aI578
aI578
aa(lp581
I585
aI567
aI573
aI579
aI579
aI579
aI521
aI352
aI410
aI555
aI645
aI609
aI625
aI844
aI792
aI579
aI579
aI579
aa(lp582
I586
aI568
aI574
aI580
aI580
aI580
aI516
aI351
aI409
aI556
aI646
aI610
aI626
aI843
aI797
aI580
aI580
aI580
aa(lp583
I587
aI569
aI575
aI581
aI581
aI581
aI517
aI350
aI408
aI557
aI647
aI611
aI627
aI842
aI796
aI581
aI581
aI581
aa(lp584
I564
aI570
aI576
aI582
aI582
aI582
aI530
aI361
aI419
aI558
aI648
aI612
aI198
aI798
aI92
aI970
aI661
aI1240
aa(lp585
I565
aI571
aI577
aI583
aI583
aI583
aI531
aI360
aI418
aI559
aI649
aI613
aI199
aI799
aI93
aI971
aI660
aI1241
aa(lp586
I566
aI572
aI578
aI584
aI584
aI584
aI532
aI365
aI417
aI560
aI650
aI614
aI200
aI800
aI94
aI966
aI665
aI1236
aa(lp587
I567
aI573
aI579
aI585
aI585
aI585
aI533
aI364
aI416
aI561
aI651
aI615
aI201
aI801
aI95
aI967
aI664
aI1237
aa(lp588
I568
aI574
aI580
aI586
aI586
aI586
aI528
aI363
aI415
aI562
aI652
aI616
aI202
aI802
aI90
aI968
aI663
aI1238
aa(lp589
I569
aI575
aI581
aI587
aI587
aI587
aI529
aI362
aI414
aI563
aI653
aI617
aI203
aI803
aI91
aI969
aI662
aI1239
aa(lp590
I588
aI588
aI588
aI703
aI564
aI1240
aI548
aI379
aI425
aI655
aI666
aI624
aI204
aI804
aI110
aI588
aI588
aI588
aa(lp591
I589
aI589
aI589
aI702
aI565
aI1241
aI549
aI378
aI424
aI654
aI667
aI625
aI205
aI805
aI111
aI589
aI589
aI589
aa(lp592
I590
aI590
aI590
aI707
aI566
aI1236
aI550
aI383
aI423
aI659
aI668
aI626
aI206
aI806
aI112
aI590
aI590
aI590
aa(lp593
I591
aI591
aI591
aI706
aI567
aI1237
aI551
aI382
aI422
aI658
aI669
aI627
aI207
aI807
aI113
aI591
aI591
aI591
aa(lp594
I592
aI592
aI592
aI705
aI568
aI1238
aI546
aI381
aI421
aI657
aI670
aI628
aI208
aI808
aI108
aI592
aI592
aI592
aa(lp595
I593
aI593
aI593
aI704
aI569
aI1239
aI547
aI380
aI420
aI656
aI671
aI629
aI209
aI809
aI109
aI593
aI593
aI593
aa(lp596
I600
aI606
aI612
aI1246
aI618
aI709
aI125
aI426
aI185
aI564
aI540
aI630
aI815
aI726
aI515
aI594
aI594
aI594
aa(lp597
I601
aI607
aI613
aI1247
aI619
aI708
aI124
aI427
aI184
aI565
aI541
aI631
aI814
aI727
aI514
aI595
aI595
aI595
aa(lp598
I602
aI608
aI614
aI1242
aI620
aI713
aI123
aI428
aI183
aI566
aI542
aI632
aI813
aI728
aI513
aI596
aI596
aI596
aa(lp599
I603
aI609
aI615
aI1243
aI621
aI712
aI122
aI429
aI182
aI567
aI543
aI633
aI812
aI729
aI512
aI597
aI597
aI597
aa(lp600
I604
aI610
aI616
aI1244
aI622
aI711
aI121
aI430
aI181
aI568
aI544
aI634
aI811
aI730
aI511
aI598
aI598
aI598
aa(lp601
I605
aI611
aI617
aI1245
aI623
aI710
aI120
aI431
aI180
aI569
aI545
aI635
aI810
aI731
aI510
aI599
aI599
aI599
aa(lp602
I606
aI612
aI594
aI600
aI600
aI600
aI435
aI456
aI627
aI570
aI546
aI636
aI821
aI732
aI521
aI600
aI600
aI600
aa(lp603
I607
aI613
aI595
aI601
aI601
aI601
aI434
aI457
aI626
aI571
aI547
aI637
aI820
aI733
aI520
aI601
aI601
aI601
aa(lp604
I608
aI614
aI596
aI602
aI602
aI602
aI433
aI458
aI625
aI572
aI548
aI638
aI819
aI734
aI519
aI602
aI602
aI602
aa(lp605
I609
aI615
aI597
aI603
aI603
aI603
aI432
aI459
aI624
aI573
aI549
aI639
aI818
aI735
aI518
aI603
aI603
aI603
aa(lp606
I610
aI616
aI598
aI604
aI604
aI604
aI437
aI460
aI629
aI574
aI550
aI640
aI817
aI736
aI517
aI604
aI604
aI604
aa(lp607
I611
aI617
aI599
aI605
aI605
aI605
aI436
aI461
aI628
aI575
aI551
aI641
aI816
aI737
aI516
aI605
aI605
aI605
aa(lp608
I612
aI594
aI600
aI606
aI606
aI606
aI134
aI438
aI197
aI576
aI552
aI642
aI974
aI823
aI951
aI606
aI606
aI606
aa(lp609
I613
aI595
aI601
aI607
aI607
aI607
aI135
aI439
aI196
aI577
aI553
aI643
aI975
aI822
aI950
aI607
aI607
aI607
aa(lp610
I614
aI596
aI602
aI608
aI608
aI608
aI136
aI440
aI195
aI578
aI554
aI644
aI976
aI827
aI949
aI608
aI608
aI608
aa(lp611
I615
aI597
aI603
aI609
aI609
aI609
aI137
aI441
aI194
aI579
aI555
aI645
aI977
aI826
aI948
aI609
aI609
aI609
aa(lp612
I616
aI598
aI604
aI610
aI610
aI610
aI132
aI442
aI193
aI580
aI556
aI646
aI972
aI825
aI953
aI610
aI610
aI610
aa(lp613
I617
aI599
aI605
aI611
aI611
aI611
aI133
aI443
aI192
aI581
aI557
aI647
aI973
aI824
aI952
aI611
aI611
aI611
aa(lp614
I594
aI600
aI606
aI612
aI612
aI612
aI146
aI444
aI203
aI582
aI558
aI648
aI833
aI751
aI536
aI976
aI667
aI1246
aa(lp615
I595
aI601
aI607
aI613
aI613
aI613
aI147
aI445
aI202
aI583
aI559
aI649
aI832
aI750
aI537
aI977
aI666
aI1247
aa(lp616
I596
aI602
aI608
aI614
aI614
aI614
aI148
aI446
aI201
aI584
aI560
aI650
aI831
aI755
aI538
aI972
aI671
aI1242
aa(lp617
I597
aI603
aI609
aI615
aI615
aI615
aI149
aI447
aI200
aI585
aI561
aI651
aI830
aI754
aI539
aI973
aI670
aI1243
aa(lp618
I598
aI604
aI610
aI616
aI616
aI616
aI144
aI448
aI199
aI586
aI562
aI652
aI829
aI753
aI534
aI974
aI669
aI1244
aa(lp619
I599
aI605
aI611
aI617
aI617
aI617
aI145
aI449
aI198
aI587
aI563
aI653
aI828
aI752
aI535
aI975
aI668
aI1245
aa(lp620
I618
aI618
aI618
aI709
aI594
aI1246
aI164
aI450
aI209
aI661
aI619
aI660
aI839
aI769
aI554
aI618
aI618
aI618
aa(lp621
I619
aI619
aI619
aI708
aI595
aI1247
aI165
aI451
aI208
aI660
aI618
aI661
aI838
aI768
aI555
aI619
aI619
aI619
aa(lp622
I620
aI620
aI620
aI713
aI596
aI1242
aI166
aI452
aI207
aI665
aI623
aI662
aI837
aI773
aI556
aI620
aI620
aI620
aa(lp623
I621
aI621
aI621
aI712
aI597
aI1243
aI167
aI453
aI206
aI664
aI622
aI663
aI836
aI772
aI557
aI621
aI621
aI621
aa(lp624
I622
aI622
aI622
aI711
aI598
aI1244
aI162
aI454
aI205
aI663
aI621
aI664
aI835
aI771
aI552
aI622
aI622
aI622
aa(lp625
I623
aI623
aI623
aI710
aI599
aI1245
aI163
aI455
aI204
aI662
aI620
aI665
aI834
aI770
aI553
aI623
aI623
aI623
aa(lp626
I624
aI624
aI624
aI624
aI624
aI624
aI603
aI432
aI459
aI588
aI655
aI666
aI845
aI793
aI578
aI624
aI624
aI624
aa(lp627
I625
aI625
aI625
aI625
aI625
aI625
aI602
aI433
aI458
aI589
aI654
aI667
aI844
aI792
aI579
aI625
aI625
aI625
aa(lp628
I626
aI626
aI626
aI626
aI626
aI626
aI601
aI434
aI457
aI590
aI659
aI668
aI843
aI797
aI580
aI626
aI626
aI626
aa(lp629
I627
aI627
aI627
aI627
aI627
aI627
aI600
aI435
aI456
aI591
aI658
aI669
aI842
aI796
aI581
aI627
aI627
aI627
aa(lp630
I628
aI628
aI628
aI628
aI628
aI628
aI605
aI436
aI461
aI592
aI657
aI670
aI841
aI795
aI576
aI628
aI628
aI628
aa(lp631
I629
aI629
aI629
aI629
aI629
aI629
aI604
aI437
aI460
aI593
aI656
aI671
aI840
aI794
aI577
aI629
aI629
aI629
aa(lp632
I636
aI642
aI648
aI1252
aI654
aI715
aI215
aI462
aI275
aI594
aI564
aI540
aI305
aI846
aI221
aI1211
aI522
aI941
aa(lp633
I637
aI643
aI649
aI1253
aI655
aI714
aI214
aI463
aI274
aI595
aI565
aI541
aI304
aI847
aI220
aI1210
aI523
aI940
aa(lp634
I638
aI644
aI650
aI1248
aI656
aI719
aI213
aI464
aI273
aI596
aI566
aI542
aI303
aI848
aI219
aI1209
aI524
aI939
aa(lp635
I639
aI645
aI651
aI1249
aI657
aI718
aI212
aI465
aI272
aI597
aI567
aI543
aI302
aI849
aI218
aI1208
aI525
aI938
aa(lp636
I640
aI646
aI652
aI1250
aI658
aI717
aI211
aI466
aI271
aI598
aI568
aI544
aI301
aI850
aI217
aI1207
aI526
aI937
aa(lp637
I641
aI647
aI653
aI1251
aI659
aI716
aI210
aI467
aI270
aI599
aI569
aI545
aI300
aI851
aI216
aI1206
aI527
aI936
aa(lp638
I642
aI648
aI630
aI636
aI636
aI636
aI471
aI492
aI663
aI600
aI570
aI546
aI311
aI852
aI227
aI1217
aI528
aI947
aa(lp639
I643
aI649
aI631
aI637
aI637
aI637
aI470
aI493
aI662
aI601
aI571
aI547
aI310
aI853
aI226
aI1216
aI529
aI946
aa(lp640
I644
aI650
aI632
aI638
aI638
aI638
aI469
aI494
aI661
aI602
aI572
aI548
aI309
aI854
aI225
aI1215
aI530
aI945
aa(lp641
I645
aI651
aI633
aI639
aI639
aI639
aI468
aI495
aI660
aI603
aI573
aI549
aI308
aI855
aI224
aI1214
aI531
aI944
aa(lp642
I646
aI652
aI634
aI640
aI640
aI640
aI473
aI496
aI665
aI604
aI574
aI550
aI307
aI856
aI223
aI1213
aI532
aI943
aa(lp643
I647
aI653
aI635
aI641
aI641
aI641
aI472
aI497
aI664
aI605
aI575
aI551
aI306
aI857
aI222
aI1212
aI533
aI942
aa(lp644
I648
aI630
aI636
aI642
aI642
aI642
aI224
aI474
aI287
aI606
aI576
aI552
aI669
aI882
aI861
aI1223
aI534
aI953
aa(lp645
I649
aI631
aI637
aI643
aI643
aI643
aI225
aI475
aI286
aI607
aI577
aI553
aI668
aI883
aI860
aI1222
aI535
aI952
aa(lp646
I650
aI632
aI638
aI644
aI644
aI644
aI226
aI476
aI285
aI608
aI578
aI554
aI667
aI884
aI859
aI1221
aI536
aI951
aa(lp647
I651
aI633
aI639
aI645
aI645
aI645
aI227
aI477
aI284
aI609
aI579
aI555
aI666
aI885
aI858
aI1220
aI537
aI950
aa(lp648
I652
aI634
aI640
aI646
aI646
aI646
aI222
aI478
aI283
aI610
aI580
aI556
aI671
aI886
aI863
aI1219
aI538
aI949
aa(lp649
I653
aI635
aI641
aI647
aI647
aI647
aI223
aI479
aI282
aI611
aI581
aI557
aI670
aI887
aI862
aI1218
aI539
aI948
aa(lp650
I630
aI636
aI642
aI648
aI648
aI648
aI236
aI480
aI293
aI612
aI582
aI558
aI323
aI864
aI242
aI1316
aI649
aI1317
aa(lp651
I631
aI637
aI643
aI649
aI649
aI649
aI237
aI481
aI292
aI613
aI583
aI559
aI322
aI865
aI243
aI1317
aI648
aI1316
aa(lp652
I632
aI638
aI644
aI650
aI650
aI650
aI238
aI482
aI291
aI614
aI584
aI560
aI321
aI866
aI244
aI1318
aI653
aI1315
aa(lp653
I633
aI639
aI645
aI651
aI651
aI651
aI239
aI483
aI290
aI615
aI585
aI561
aI320
aI867
aI245
aI1319
aI652
aI1314
aa(lp654
I634
aI640
aI646
aI652
aI652
aI652
aI234
aI484
aI289
aI616
aI586
aI562
aI319
aI868
aI240
aI1314
aI651
aI1319
aa(lp655
I635
aI641
aI647
aI653
aI653
aI653
aI235
aI485
aI288
aI617
aI587
aI563
aI318
aI869
aI241
aI1315
aI650
aI1318
aa(lp656
I654
aI654
aI654
aI715
aI630
aI1252
aI254
aI486
aI299
aI667
aI625
aI589
aI329
aI870
aI260
aI1235
aI559
aI965
aa(lp657
I655
aI655
aI655
aI714
aI631
aI1253
aI255
aI487
aI298
aI666
aI624
aI588
aI328
aI871
aI261
aI1234
aI558
aI964
aa(lp658
I656
aI656
aI656
aI719
aI632
aI1248
aI256
aI488
aI297
aI671
aI629
aI593
aI327
aI872
aI262
aI1233
aI563
aI963
aa(lp659
I657
aI657
aI657
aI718
aI633
aI1249
aI257
aI489
aI296
aI670
aI628
aI592
aI326
aI873
aI263
aI1232
aI562
aI962
aa(lp660
I658
aI658
aI658
aI717
aI634
aI1250
aI252
aI490
aI295
aI669
aI627
aI591
aI325
aI874
aI258
aI1231
aI561
aI961
aa(lp661
I659
aI659
aI659
aI716
aI635
aI1251
aI253
aI491
aI294
aI668
aI626
aI590
aI324
aI875
aI259
aI1230
aI560
aI960
aa(lp662
I660
aI660
aI660
aI660
aI660
aI660
aI639
aI468
aI495
aI618
aI661
aI619
aI335
aI876
aI284
aI1241
aI583
aI971
aa(lp663
I661
aI661
aI661
aI661
aI661
aI661
aI638
aI469
aI494
aI619
aI660
aI618
aI334
aI877
aI285
aI1240
aI582
aI970
aa(lp664
I662
aI662
aI662
aI662
aI662
aI662
aI637
aI470
aI493
aI620
aI665
aI623
aI333
aI878
aI286
aI1239
aI587
aI969
aa(lp665
I663
aI663
aI663
aI663
aI663
aI663
aI636
aI471
aI492
aI621
aI664
aI622
aI332
aI879
aI287
aI1238
aI586
aI968
aa(lp666
I664
aI664
aI664
aI664
aI664
aI664
aI641
aI472
aI497
aI622
aI663
aI621
aI331
aI880
aI282
aI1237
aI585
aI967
aa(lp667
I665
aI665
aI665
aI665
aI665
aI665
aI640
aI473
aI496
aI623
aI662
aI620
aI330
aI881
aI283
aI1236
aI584
aI966
aa(lp668
I666
aI666
aI666
aI666
aI666
aI666
aI308
aI498
aI332
aI624
aI588
aI655
aI885
aI858
aI645
aI1247
aI613
aI977
aa(lp669
I667
aI667
aI667
aI667
aI667
aI667
aI309
aI499
aI333
aI625
aI589
aI654
aI884
aI859
aI644
aI1246
aI612
aI976
aa(lp670
I668
aI668
aI668
aI668
aI668
aI668
aI310
aI500
aI334
aI626
aI590
aI659
aI883
aI860
aI643
aI1245
aI617
aI975
aa(lp671
I669
aI669
aI669
aI669
aI669
aI669
aI311
aI501
aI335
aI627
aI591
aI658
aI882
aI861
aI642
aI1244
aI616
aI974
aa(lp672
I670
aI670
aI670
aI670
aI670
aI670
aI306
aI502
aI330
aI628
aI592
aI657
aI887
aI862
aI647
aI1243
aI615
aI973
aa(lp673
I671
aI671
aI671
aI671
aI671
aI671
aI307
aI503
aI331
aI629
aI593
aI656
aI886
aI863
aI646
aI1242
aI614
aI972
aa(lp674
I678
aI684
aI690
aI1210
aI1235
aI697
aI65
aI677
aI60
aI672
aI672
aI672
aI431
aI888
aI347
aI672
aI672
aI672
aa(lp675
I679
aI685
aI691
aI1211
aI1234
aI696
aI64
aI676
aI61
aI673
aI673
aI673
aI430
aI889
aI346
aI673
aI673
aI673
aa(lp676
I680
aI686
aI692
aI1206
aI1233
aI701
aI63
aI675
aI62
aI674
aI674
aI674
aI429
aI890
aI345
aI674
aI674
aI674
aa(lp677
I681
aI687
aI693
aI1207
aI1232
aI700
aI62
aI674
aI63
aI675
aI675
aI675
aI428
aI891
aI344
aI675
aI675
aI675
aa(lp678
I682
aI688
aI694
aI1208
aI1231
aI699
aI61
aI673
aI64
aI676
aI676
aI676
aI427
aI892
aI343
aI676
aI676
aI676
aa(lp679
I683
aI689
aI695
aI1209
aI1230
aI698
aI60
aI672
aI65
aI677
aI677
aI677
aI426
aI893
aI342
aI677
aI677
aI677
aa(lp680
I684
aI690
aI672
aI505
aI1217
aI546
aI405
aI707
aI574
aI678
aI678
aI678
aI437
aI894
aI353
aI678
aI678
aI678
aa(lp681
I685
aI691
aI673
aI504
aI1216
aI547
aI404
aI706
aI575
aI679
aI679
aI679
aI436
aI895
aI352
aI679
aI679
aI679
aa(lp682
I686
aI692
aI674
aI509
aI1215
aI548
aI403
aI705
aI570
aI680
aI680
aI680
aI435
aI896
aI351
aI680
aI680
aI680
aa(lp683
I687
aI693
aI675
aI508
aI1214
aI549
aI402
aI704
aI571
aI681
aI681
aI681
aI434
aI897
aI350
aI681
aI681
aI681
aa(lp684
I688
aI694
aI676
aI507
aI1213
aI550
aI407
aI703
aI572
aI682
aI682
aI682
aI433
aI898
aI349
aI682
aI682
aI682
aa(lp685
I689
aI695
aI677
aI506
aI1212
aI551
aI406
aI702
aI573
aI683
aI683
aI683
aI432
aI899
aI348
aI683
aI683
aI683
aa(lp686
I690
aI672
aI678
aI511
aI1223
aI552
aI74
aI689
aI73
aI684
aI684
aI684
aI711
aI924
aI903
aI684
aI684
aI684
aa(lp687
I691
aI673
aI679
aI510
aI1222
aI553
aI75
aI688
aI72
aI685
aI685
aI685
aI710
aI925
aI902
aI685
aI685
aI685
aa(lp688
I692
aI674
aI680
aI515
aI1221
aI554
aI76
aI687
aI77
aI686
aI686
aI686
aI709
aI926
aI901
aI686
aI686
aI686
aa(lp689
I693
aI675
aI681
aI514
aI1220
aI555
aI77
aI686
aI76
aI687
aI687
aI687
aI708
aI927
aI900
aI687
aI687
aI687
aa(lp690
I694
aI676
aI682
aI513
aI1219
aI556
aI72
aI685
aI75
aI688
aI688
aI688
aI713
aI928
aI905
aI688
aI688
aI688
aa(lp691
I695
aI677
aI683
aI512
aI1218
aI557
aI73
aI684
aI74
aI689
aI689
aI689
aI712
aI929
aI904
aI689
aI689
aI689
aa(lp692
I672
aI678
aI684
aI523
aI1229
aI558
aI86
aI695
aI85
aI690
aI690
aI690
aI449
aI906
aI368
aI988
aI714
aI1258
aa(lp693
I673
aI679
aI685
aI522
aI1228
aI559
aI87
aI694
aI84
aI691
aI691
aI691
aI448
aI907
aI369
aI989
aI715
aI1259
aa(lp694
I674
aI680
aI686
aI527
aI1227
aI560
aI88
aI693
aI89
aI692
aI692
aI692
aI447
aI908
aI370
aI984
aI716
aI1254
aa(lp695
I675
aI681
aI687
aI526
aI1226
aI561
aI89
aI692
aI88
aI693
aI693
aI693
aI446
aI909
aI371
aI985
aI717
aI1255
aa(lp696
I676
aI682
aI688
aI525
aI1225
aI562
aI84
aI691
aI87
aI694
aI694
aI694
aI445
aI910
aI366
aI986
aI718
aI1256
aa(lp697
I677
aI683
aI689
aI524
aI1224
aI563
aI85
aI690
aI86
aI695
aI695
aI695
aI444
aI911
aI367
aI987
aI719
aI1257
aa(lp698
I696
aI696
aI696
aI673
aI1211
aI1234
aI104
aI701
aI103
aI714
aI708
aI702
aI455
aI912
aI386
aI696
aI696
aI696
aa(lp699
I697
aI697
aI697
aI672
aI1210
aI1235
aI105
aI700
aI102
aI715
aI709
aI703
aI454
aI913
aI387
aI697
aI697
aI697
aa(lp700
I698
aI698
aI698
aI677
aI1209
aI1230
aI106
aI699
aI107
aI716
aI710
aI704
aI453
aI914
aI388
aI698
aI698
aI698
aa(lp701
I699
aI699
aI699
aI676
aI1208
aI1231
aI107
aI698
aI106
aI717
aI711
aI705
aI452
aI915
aI389
aI699
aI699
aI699
aa(lp702
I700
aI700
aI700
aI675
aI1207
aI1232
aI102
aI697
aI105
aI718
aI712
aI706
aI451
aI916
aI384
aI700
aI700
aI700
aa(lp703
I701
aI701
aI701
aI674
aI1206
aI1233
aI103
aI696
aI104
aI719
aI713
aI707
aI450
aI917
aI385
aI701
aI701
aI701
aa(lp704
I702
aI702
aI702
aI565
aI1241
aI589
aI573
aI683
aI406
aI696
aI714
aI708
aI461
aI918
aI410
aI702
aI702
aI702
aa(lp705
I703
aI703
aI703
aI564
aI1240
aI588
aI572
aI682
aI407
aI697
aI715
aI709
aI460
aI919
aI411
aI703
aI703
aI703
aa(lp706
I704
aI704
aI704
aI569
aI1239
aI593
aI571
aI681
aI402
aI698
aI716
aI710
aI459
aI920
aI412
aI704
aI704
aI704
aa(lp707
I705
aI705
aI705
aI568
aI1238
aI592
aI570
aI680
aI403
aI699
aI717
aI711
aI458
aI921
aI413
aI705
aI705
aI705
aa(lp708
I706
aI706
aI706
aI567
aI1237
aI591
aI575
aI679
aI404
aI700
aI718
aI712
aI457
aI922
aI408
aI706
aI706
aI706
aa(lp709
I707
aI707
aI707
aI566
aI1236
aI590
aI574
aI678
aI405
aI701
aI719
aI713
aI456
aI923
aI409
aI707
aI707
aI707
aa(lp710
I708
aI708
aI708
aI595
aI1247
aI619
aI189
aI713
aI190
aI702
aI696
aI714
aI927
aI900
aI687
aI708
aI708
aI708
aa(lp711
I709
aI709
aI709
aI594
aI1246
aI618
aI188
aI712
aI191
aI703
aI697
aI715
aI926
aI901
aI686
aI709
aI709
aI709
aa(lp712
I710
aI710
aI710
aI599
aI1245
aI623
aI187
aI711
aI186
aI704
aI698
aI716
aI925
aI902
aI685
aI710
aI710
aI710
aa(lp713
I711
aI711
aI711
aI598
aI1244
aI622
aI186
aI710
aI187
aI705
aI699
aI717
aI924
aI903
aI684
aI711
aI711
aI711
aa(lp714
I712
aI712
aI712
aI597
aI1243
aI621
aI191
aI709
aI188
aI706
aI700
aI718
aI929
aI904
aI689
aI712
aI712
aI712
aa(lp715
I713
aI713
aI713
aI596
aI1242
aI620
aI190
aI708
aI189
aI707
aI701
aI719
aI928
aI905
aI688
aI713
aI713
aI713
aa(lp716
I714
aI714
aI714
aI631
aI1253
aI655
aI279
aI719
aI280
aI708
aI702
aI696
aI500
aI930
aI476
aI1258
aI690
aI988
aa(lp717
I715
aI715
aI715
aI630
aI1252
aI654
aI278
aI718
aI281
aI709
aI703
aI697
aI501
aI931
aI477
aI1259
aI691
aI989
aa(lp718
I716
aI716
aI716
aI635
aI1251
aI659
aI277
aI717
aI276
aI710
aI704
aI698
aI502
aI932
aI478
aI1254
aI692
aI984
aa(lp719
I717
aI717
aI717
aI634
aI1250
aI658
aI276
aI716
aI277
aI711
aI705
aI699
aI503
aI933
aI479
aI1255
aI693
aI985
aa(lp720
I718
aI718
aI718
aI633
aI1249
aI657
aI281
aI715
aI278
aI712
aI706
aI700
aI498
aI934
aI474
aI1256
aI694
aI986
aa(lp721
I719
aI719
aI719
aI632
aI1248
aI656
aI280
aI714
aI279
aI713
aI707
aI701
aI499
aI935
aI475
aI1257
aI695
aI987
aa(lp722
I732
aI750
aI739
aI1270
aI763
aI895
aI888
aI780
aI936
aI720
aI720
aI720
aI0
aI504
aI120
aI210
aI990
aI6
aa(lp723
I733
aI751
aI738
aI1271
aI762
aI894
aI889
aI781
aI937
aI721
aI721
aI721
aI1
aI505
aI121
aI211
aI991
aI7
aa(lp724
I734
aI752
aI743
aI1266
aI767
aI899
aI890
aI782
aI938
aI722
aI722
aI722
aI2
aI506
aI122
aI212
aI992
aI8
aa(lp725
I735
aI753
aI742
aI1267
aI766
aI898
aI891
aI783
aI939
aI723
aI723
aI723
aI3
aI507
aI123
aI213
aI993
aI9
aa(lp726
I736
aI754
aI741
aI1268
aI765
aI897
aI892
aI784
aI940
aI724
aI724
aI724
aI4
aI508
aI124
aI214
aI994
aI10
aa(lp727
I737
aI755
aI740
aI1269
aI764
aI896
aI893
aI785
aI941
aI725
aI725
aI725
aI5
aI509
aI125
aI215
aI995
aI11
aa(lp728
I744
aI727
aI745
aI1276
aI769
aI901
aI726
aI726
aI726
aI726
aI726
aI726
aI515
aI594
aI815
aI216
aI996
aI12
aa(lp729
I745
aI726
aI744
aI1277
aI768
aI900
aI727
aI727
aI727
aI727
aI727
aI727
aI514
aI595
aI814
aI217
aI997
aI13
aa(lp730
I746
aI731
aI749
aI1272
aI773
aI905
aI728
aI728
aI728
aI728
aI728
aI728
aI513
aI596
aI813
aI218
aI998
aI14
aa(lp731
I747
aI730
aI748
aI1273
aI772
aI904
aI729
aI729
aI729
aI729
aI729
aI729
aI512
aI597
aI812
aI219
aI999
aI15
aa(lp732
I748
aI729
aI747
aI1274
aI771
aI903
aI730
aI730
aI730
aI730
aI730
aI730
aI511
aI598
aI811
aI220
aI1000
aI16
aa(lp733
I749
aI728
aI746
aI1275
aI770
aI902
aI731
aI731
aI731
aI731
aI731
aI731
aI510
aI599
aI810
aI221
aI1001
aI17
aa(lp734
I750
aI739
aI720
aI732
aI732
aI732
aI901
aI793
aI949
aI732
aI732
aI732
aI521
aI600
aI821
aI222
aI1002
aI18
aa(lp735
I751
aI738
aI721
aI733
aI733
aI733
aI900
aI792
aI948
aI733
aI733
aI733
aI520
aI601
aI820
aI223
aI1003
aI19
aa(lp736
I752
aI743
aI722
aI734
aI734
aI734
aI905
aI797
aI953
aI734
aI734
aI734
aI519
aI602
aI819
aI224
aI1004
aI20
aa(lp737
I753
aI742
aI723
aI735
aI735
aI735
aI904
aI796
aI952
aI735
aI735
aI735
aI518
aI603
aI818
aI225
aI1005
aI21
aa(lp738
I754
aI741
aI724
aI736
aI736
aI736
aI903
aI795
aI951
aI736
aI736
aI736
aI517
aI604
aI817
aI226
aI1006
aI22
aa(lp739
I755
aI740
aI725
aI737
aI737
aI737
aI902
aI794
aI950
aI737
aI737
aI737
aI516
aI605
aI816
aI227
aI1007
aI23
aa(lp740
I721
aI733
aI751
aI1282
aI775
aI907
aI738
aI738
aI738
aI738
aI738
aI738
aI17
aI522
aI138
aI851
aI1116
aI1013
aa(lp741
I720
aI732
aI750
aI1283
aI774
aI906
aI739
aI739
aI739
aI739
aI739
aI739
aI16
aI523
aI139
aI850
aI1117
aI1012
aa(lp742
I725
aI737
aI755
aI1278
aI779
aI911
aI740
aI740
aI740
aI740
aI740
aI740
aI15
aI524
aI140
aI849
aI1118
aI1011
aa(lp743
I724
aI736
aI754
aI1279
aI778
aI910
aI741
aI741
aI741
aI741
aI741
aI741
aI14
aI525
aI141
aI848
aI1119
aI1010
aa(lp744
I723
aI735
aI753
aI1280
aI777
aI909
aI742
aI742
aI742
aI742
aI742
aI742
aI13
aI526
aI142
aI847
aI1120
aI1009
aa(lp745
I722
aI734
aI752
aI1281
aI776
aI908
aI743
aI743
aI743
aI743
aI743
aI743
aI12
aI527
aI143
aI846
aI1121
aI1008
aa(lp746
I727
aI745
aI726
aI744
aI744
aI744
aI907
aI799
aI955
aI744
aI744
aI744
aI23
aI528
aI144
aI857
aI1122
aI1019
aa(lp747
I726
aI744
aI727
aI745
aI745
aI745
aI906
aI798
aI954
aI745
aI745
aI745
aI22
aI529
aI145
aI856
aI1123
aI1018
aa(lp748
I731
aI749
aI728
aI746
aI746
aI746
aI911
aI803
aI959
aI746
aI746
aI746
aI21
aI530
aI146
aI855
aI1124
aI1017
aa(lp749
I730
aI748
aI729
aI747
aI747
aI747
aI910
aI802
aI958
aI747
aI747
aI747
aI20
aI531
aI147
aI854
aI1125
aI1016
aa(lp750
I729
aI747
aI730
aI748
aI748
aI748
aI909
aI801
aI957
aI748
aI748
aI748
aI19
aI532
aI148
aI853
aI1126
aI1015
aa(lp751
I728
aI746
aI731
aI749
aI749
aI749
aI908
aI800
aI956
aI749
aI749
aI749
aI18
aI533
aI149
aI852
aI1127
aI1014
aa(lp752
I739
aI720
aI732
aI750
aI750
aI750
aI750
aI750
aI750
aI750
aI750
aI750
aI537
aI613
aI832
aI863
aI1128
aI1025
aa(lp753
I738
aI721
aI733
aI751
aI751
aI751
aI751
aI751
aI751
aI751
aI751
aI751
aI536
aI612
aI833
aI862
aI1129
aI1024
aa(lp754
I743
aI722
aI734
aI752
aI752
aI752
aI752
aI752
aI752
aI752
aI752
aI752
aI535
aI617
aI828
aI861
aI1130
aI1023
aa(lp755
I742
aI723
aI735
aI753
aI753
aI753
aI753
aI753
aI753
aI753
aI753
aI753
aI534
aI616
aI829
aI860
aI1131
aI1022
aa(lp756
I741
aI724
aI736
aI754
aI754
aI754
aI754
aI754
aI754
aI754
aI754
aI754
aI539
aI615
aI830
aI859
aI1132
aI1021
aa(lp757
I740
aI725
aI737
aI755
aI755
aI755
aI755
aI755
aI755
aI755
aI755
aI755
aI538
aI614
aI831
aI858
aI1133
aI1020
aa(lp758
I762
aI768
aI774
aI1312
aI757
aI1313
aI756
aI756
aI756
aI846
aI810
aI780
aI35
aI540
aI156
aI246
aI1026
aI47
aa(lp759
I763
aI769
aI775
aI1313
aI756
aI1312
aI757
aI757
aI757
aI847
aI811
aI781
aI34
aI541
aI157
aI247
aI1027
aI46
aa(lp760
I764
aI770
aI776
aI1308
aI761
aI1311
aI758
aI758
aI758
aI848
aI812
aI782
aI33
aI542
aI158
aI248
aI1028
aI45
aa(lp761
I765
aI771
aI777
aI1309
aI760
aI1310
aI759
aI759
aI759
aI849
aI813
aI783
aI32
aI543
aI159
aI249
aI1029
aI44
aa(lp762
I766
aI772
aI778
aI1310
aI759
aI1309
aI760
aI760
aI760
aI850
aI814
aI784
aI31
aI544
aI160
aI250
aI1030
aI43
aa(lp763
I767
aI773
aI779
aI1311
aI758
aI1308
aI761
aI761
aI761
aI851
aI815
aI785
aI30
aI545
aI161
aI251
aI1031
aI42
aa(lp764
I768
aI774
aI756
aI894
aI721
aI1271
aI913
aI805
aI961
aI852
aI816
aI786
aI41
aI546
aI162
aI252
aI1032
aI53
aa(lp765
I769
aI775
aI757
aI895
aI720
aI1270
aI912
aI804
aI960
aI853
aI817
aI787
aI40
aI547
aI163
aI253
aI1033
aI52
aa(lp766
I770
aI776
aI758
aI896
aI725
aI1269
aI917
aI809
aI965
aI854
aI818
aI788
aI39
aI548
aI164
aI254
aI1034
aI51
aa(lp767
I771
aI777
aI759
aI897
aI724
aI1268
aI916
aI808
aI964
aI855
aI819
aI789
aI38
aI549
aI165
aI255
aI1035
aI50
aa(lp768
I772
aI778
aI760
aI898
aI723
aI1267
aI915
aI807
aI963
aI856
aI820
aI790
aI37
aI550
aI166
aI256
aI1036
aI49
aa(lp769
I773
aI779
aI761
aI899
aI722
aI1266
aI914
aI806
aI962
aI857
aI821
aI791
aI36
aI551
aI167
aI257
aI1037
aI48
aa(lp770
I774
aI756
aI762
aI900
aI727
aI1277
aI768
aI768
aI768
aI858
aI822
aI792
aI555
aI619
aI838
aI258
aI1038
aI59
aa(lp771
I775
aI757
aI763
aI901
aI726
aI1276
aI769
aI769
aI769
aI859
aI823
aI793
aI554
aI618
aI839
aI259
aI1039
aI58
aa(lp772
I776
aI758
aI764
aI902
aI731
aI1275
aI770
aI770
aI770
aI860
aI824
aI794
aI553
aI623
aI834
aI260
aI1040
aI57
aa(lp773
I777
aI759
aI765
aI903
aI730
aI1274
aI771
aI771
aI771
aI861
aI825
aI795
aI552
aI622
aI835
aI261
aI1041
aI56
aa(lp774
I778
aI760
aI766
aI904
aI729
aI1273
aI772
aI772
aI772
aI862
aI826
aI796
aI557
aI621
aI836
aI262
aI1042
aI55
aa(lp775
I779
aI761
aI767
aI905
aI728
aI1272
aI773
aI773
aI773
aI863
aI827
aI797
aI556
aI620
aI837
aI263
aI1043
aI54
aa(lp776
I756
aI762
aI768
aI906
aI739
aI1283
aI774
aI774
aI774
aI864
aI828
aI798
aI56
aI558
aI174
aI874
aI1141
aI1047
aa(lp777
I757
aI763
aI769
aI907
aI738
aI1282
aI775
aI775
aI775
aI865
aI829
aI799
aI57
aI559
aI175
aI875
aI1140
aI1046
aa(lp778
I758
aI764
aI770
aI908
aI743
aI1281
aI776
aI776
aI776
aI866
aI830
aI800
aI58
aI560
aI176
aI870
aI1145
aI1045
aa(lp779
I759
aI765
aI771
aI909
aI742
aI1280
aI777
aI777
aI777
aI867
aI831
aI801
aI59
aI561
aI177
aI871
aI1144
aI1044
aa(lp780
I760
aI766
aI772
aI910
aI741
aI1279
aI778
aI778
aI778
aI868
aI832
aI802
aI54
aI562
aI178
aI872
aI1143
aI1049
aa(lp781
I761
aI767
aI773
aI911
aI740
aI1278
aI779
aI779
aI779
aI869
aI833
aI803
aI55
aI563
aI179
aI873
aI1142
aI1048
aa(lp782
I786
aI792
aI798
aI1294
aI804
aI919
aI936
aI720
aI888
aI756
aI846
aI810
aI71
aI564
aI180
aI270
aI1050
aI83
aa(lp783
I787
aI793
aI799
aI1295
aI805
aI918
aI937
aI721
aI889
aI757
aI847
aI811
aI70
aI565
aI181
aI271
aI1051
aI82
aa(lp784
I788
aI794
aI800
aI1290
aI806
aI923
aI938
aI722
aI890
aI758
aI848
aI812
aI69
aI566
aI182
aI272
aI1052
aI81
aa(lp785
I789
aI795
aI801
aI1291
aI807
aI922
aI939
aI723
aI891
aI759
aI849
aI813
aI68
aI567
aI183
aI273
aI1053
aI80
aa(lp786
I790
aI796
aI802
aI1292
aI808
aI921
aI940
aI724
aI892
aI760
aI850
aI814
aI67
aI568
aI184
aI274
aI1054
aI79
aa(lp787
I791
aI797
aI803
aI1293
aI809
aI920
aI941
aI725
aI893
aI761
aI851
aI815
aI66
aI569
aI185
aI275
aI1055
aI78
aa(lp788
I792
aI798
aI780
aI786
aI786
aI786
aI984
aI787
aI985
aI762
aI852
aI816
aI77
aI570
aI186
aI276
aI1056
aI89
aa(lp789
I793
aI799
aI781
aI787
aI787
aI787
aI985
aI786
aI984
aI763
aI853
aI817
aI76
aI571
aI187
aI277
aI1057
aI88
aa(lp790
I794
aI800
aI782
aI788
aI788
aI788
aI986
aI791
aI989
aI764
aI854
aI818
aI75
aI572
aI188
aI278
aI1058
aI87
aa(lp791
I795
aI801
aI783
aI789
aI789
aI789
aI987
aI790
aI988
aI765
aI855
aI819
aI74
aI573
aI189
aI279
aI1059
aI86
aa(lp792
I796
aI802
aI784
aI790
aI790
aI790
aI988
aI789
aI987
aI766
aI856
aI820
aI73
aI574
aI190
aI280
aI1060
aI85
aa(lp793
I797
aI803
aI785
aI791
aI791
aI791
aI989
aI788
aI986
aI767
aI857
aI821
aI72
aI575
aI191
aI281
aI1061
aI84
aa(lp794
I798
aI780
aI786
aI792
aI792
aI792
aI948
aI733
aI900
aI768
aI858
aI822
aI579
aI625
aI844
aI282
aI1062
aI95
aa(lp795
I799
aI781
aI787
aI793
aI793
aI793
aI949
aI732
aI901
aI769
aI859
aI823
aI578
aI624
aI845
aI283
aI1063
aI94
aa(lp796
I800
aI782
aI788
aI794
aI794
aI794
aI950
aI737
aI902
aI770
aI860
aI824
aI577
aI629
aI840
aI284
aI1064
aI93
aa(lp797
I801
aI783
aI789
aI795
aI795
aI795
aI951
aI736
aI903
aI771
aI861
aI825
aI576
aI628
aI841
aI285
aI1065
aI92
aa(lp798
I802
aI784
aI790
aI796
aI796
aI796
aI952
aI735
aI904
aI772
aI862
aI826
aI581
aI627
aI842
aI286
aI1066
aI91
aa(lp799
I803
aI785
aI791
aI797
aI797
aI797
aI953
aI734
aI905
aI773
aI863
aI827
aI580
aI626
aI843
aI287
aI1067
aI90
aa(lp800
I780
aI786
aI792
aI798
aI798
aI798
aI954
aI745
aI906
aI774
aI864
aI828
aI92
aI582
aI198
aI880
aI1147
aI1071
aa(lp801
I781
aI787
aI793
aI799
aI799
aI799
aI955
aI744
aI907
aI775
aI865
aI829
aI93
aI583
aI199
aI881
aI1146
aI1070
aa(lp802
I782
aI788
aI794
aI800
aI800
aI800
aI956
aI749
aI908
aI776
aI866
aI830
aI94
aI584
aI200
aI876
aI1151
aI1069
aa(lp803
I783
aI789
aI795
aI801
aI801
aI801
aI957
aI748
aI909
aI777
aI867
aI831
aI95
aI585
aI201
aI877
aI1150
aI1068
aa(lp804
I784
aI790
aI796
aI802
aI802
aI802
aI958
aI747
aI910
aI778
aI868
aI832
aI90
aI586
aI202
aI878
aI1149
aI1073
aa(lp805
I785
aI791
aI797
aI803
aI803
aI803
aI959
aI746
aI911
aI779
aI869
aI833
aI91
aI587
aI203
aI879
aI1148
aI1072
aa(lp806
I804
aI804
aI804
aI919
aI780
aI1294
aI960
aI763
aI912
aI871
aI882
aI840
aI110
aI588
aI204
aI294
aI1074
aI116
aa(lp807
I805
aI805
aI805
aI918
aI781
aI1295
aI961
aI762
aI913
aI870
aI883
aI841
aI111
aI589
aI205
aI295
aI1075
aI117
aa(lp808
I806
aI806
aI806
aI923
aI782
aI1290
aI962
aI767
aI914
aI875
aI884
aI842
aI112
aI590
aI206
aI296
aI1076
aI118
aa(lp809
I807
aI807
aI807
aI922
aI783
aI1291
aI963
aI766
aI915
aI874
aI885
aI843
aI113
aI591
aI207
aI297
aI1077
aI119
aa(lp810
I808
aI808
aI808
aI921
aI784
aI1292
aI964
aI765
aI916
aI873
aI886
aI844
aI108
aI592
aI208
aI298
aI1078
aI114
aa(lp811
I809
aI809
aI809
aI920
aI785
aI1293
aI965
aI764
aI917
aI872
aI887
aI845
aI109
aI593
aI209
aI299
aI1079
aI115
aa(lp812
I816
aI822
aI828
aI1300
aI834
aI925
aI810
aI810
aI810
aI780
aI756
aI846
aI731
aI510
aI599
aI300
aI1080
aI143
aa(lp813
I817
aI823
aI829
aI1301
aI835
aI924
aI811
aI811
aI811
aI781
aI757
aI847
aI730
aI511
aI598
aI301
aI1081
aI142
aa(lp814
I818
aI824
aI830
aI1296
aI836
aI929
aI812
aI812
aI812
aI782
aI758
aI848
aI729
aI512
aI597
aI302
aI1082
aI141
aa(lp815
I819
aI825
aI831
aI1297
aI837
aI928
aI813
aI813
aI813
aI783
aI759
aI849
aI728
aI513
aI596
aI303
aI1083
aI140
aa(lp816
I820
aI826
aI832
aI1298
aI838
aI927
aI814
aI814
aI814
aI784
aI760
aI850
aI727
aI514
aI595
aI304
aI1084
aI139
aa(lp817
I821
aI827
aI833
aI1299
aI839
aI926
aI815
aI815
aI815
aI785
aI761
aI851
aI726
aI515
aI594
aI305
aI1085
aI138
aa(lp818
I822
aI828
aI810
aI816
aI816
aI816
aI925
aI840
aI973
aI786
aI762
aI852
aI737
aI516
aI605
aI306
aI1086
aI149
aa(lp819
I823
aI829
aI811
aI817
aI817
aI817
aI924
aI841
aI972
aI787
aI763
aI853
aI736
aI517
aI604
aI307
aI1087
aI148
aa(lp820
I824
aI830
aI812
aI818
aI818
aI818
aI929
aI842
aI977
aI788
aI764
aI854
aI735
aI518
aI603
aI308
aI1088
aI147
aa(lp821
I825
aI831
aI813
aI819
aI819
aI819
aI928
aI843
aI976
aI789
aI765
aI855
aI734
aI519
aI602
aI309
aI1089
aI146
aa(lp822
I826
aI832
aI814
aI820
aI820
aI820
aI927
aI844
aI975
aI790
aI766
aI856
aI733
aI520
aI601
aI310
aI1090
aI145
aa(lp823
I827
aI833
aI815
aI821
aI821
aI821
aI926
aI845
aI974
aI791
aI767
aI857
aI732
aI521
aI600
aI311
aI1091
aI144
aa(lp824
I828
aI810
aI816
aI822
aI822
aI822
aI822
aI822
aI822
aI792
aI768
aI858
aI950
aI607
aI975
aI312
aI1092
aI155
aa(lp825
I829
aI811
aI817
aI823
aI823
aI823
aI823
aI823
aI823
aI793
aI769
aI859
aI951
aI606
aI974
aI313
aI1093
aI154
aa(lp826
I830
aI812
aI818
aI824
aI824
aI824
aI824
aI824
aI824
aI794
aI770
aI860
aI952
aI611
aI973
aI314
aI1094
aI153
aa(lp827
I831
aI813
aI819
aI825
aI825
aI825
aI825
aI825
aI825
aI795
aI771
aI861
aI953
aI610
aI972
aI315
aI1095
aI152
aa(lp828
I832
aI814
aI820
aI826
aI826
aI826
aI826
aI826
aI826
aI796
aI772
aI862
aI948
aI609
aI977
aI316
aI1096
aI151
aa(lp829
I833
aI815
aI821
aI827
aI827
aI827
aI827
aI827
aI827
aI797
aI773
aI863
aI949
aI608
aI976
aI317
aI1097
aI150
aa(lp830
I810
aI816
aI822
aI828
aI828
aI828
aI828
aI828
aI828
aI798
aI774
aI864
aI752
aI535
aI617
aI886
aI1153
aI1101
aa(lp831
I811
aI817
aI823
aI829
aI829
aI829
aI829
aI829
aI829
aI799
aI775
aI865
aI753
aI534
aI616
aI887
aI1152
aI1100
aa(lp832
I812
aI818
aI824
aI830
aI830
aI830
aI830
aI830
aI830
aI800
aI776
aI866
aI754
aI539
aI615
aI882
aI1157
aI1099
aa(lp833
I813
aI819
aI825
aI831
aI831
aI831
aI831
aI831
aI831
aI801
aI777
aI867
aI755
aI538
aI614
aI883
aI1156
aI1098
aa(lp834
I814
aI820
aI826
aI832
aI832
aI832
aI832
aI832
aI832
aI802
aI778
aI868
aI750
aI537
aI613
aI884
aI1155
aI1103
aa(lp835
I815
aI821
aI827
aI833
aI833
aI833
aI833
aI833
aI833
aI803
aI779
aI869
aI751
aI536
aI612
aI885
aI1154
aI1102
aa(lp836
I834
aI834
aI834
aI925
aI810
aI1300
aI834
aI834
aI834
aI877
aI835
aI876
aI770
aI553
aI623
aI324
aI1104
aI176
aa(lp837
I835
aI835
aI835
aI924
aI811
aI1301
aI835
aI835
aI835
aI876
aI834
aI877
aI771
aI552
aI622
aI325
aI1105
aI177
aa(lp838
I836
aI836
aI836
aI929
aI812
aI1296
aI836
aI836
aI836
aI881
aI839
aI878
aI772
aI557
aI621
aI326
aI1106
aI178
aa(lp839
I837
aI837
aI837
aI928
aI813
aI1297
aI837
aI837
aI837
aI880
aI838
aI879
aI773
aI556
aI620
aI327
aI1107
aI179
aa(lp840
I838
aI838
aI838
aI927
aI814
aI1298
aI838
aI838
aI838
aI879
aI837
aI880
aI768
aI555
aI619
aI328
aI1108
aI174
aa(lp841
I839
aI839
aI839
aI926
aI815
aI1299
aI839
aI839
aI839
aI878
aI836
aI881
aI769
aI554
aI618
aI329
aI1109
aI175
aa(lp842
I840
aI840
aI840
aI840
aI840
aI840
aI973
aI816
aI925
aI804
aI871
aI882
aI794
aI577
aI629
aI330
aI1110
aI200
aa(lp843
I841
aI841
aI841
aI841
aI841
aI841
aI972
aI817
aI924
aI805
aI870
aI883
aI795
aI576
aI628
aI331
aI1111
aI201
aa(lp844
I842
aI842
aI842
aI842
aI842
aI842
aI977
aI818
aI929
aI806
aI875
aI884
aI796
aI581
aI627
aI332
aI1112
aI202
aa(lp845
I843
aI843
aI843
aI843
aI843
aI843
aI976
aI819
aI928
aI807
aI874
aI885
aI797
aI580
aI626
aI333
aI1113
aI203
aa(lp846
I844
aI844
aI844
aI844
aI844
aI844
aI975
aI820
aI927
aI808
aI873
aI886
aI792
aI579
aI625
aI334
aI1114
aI198
aa(lp847
I845
aI845
aI845
aI845
aI845
aI845
aI974
aI821
aI926
aI809
aI872
aI887
aI793
aI578
aI624
aI335
aI1115
aI199
aa(lp848
I852
aI858
aI864
aI1306
aI870
aI931
aI846
aI846
aI846
aI810
aI780
aI756
aI221
aI630
aI305
aI1121
aI1008
aI743
aa(lp849
I853
aI859
aI865
aI1307
aI871
aI930
aI847
aI847
aI847
aI811
aI781
aI757
aI220
aI631
aI304
aI1120
aI1009
aI742
aa(lp850
I854
aI860
aI866
aI1302
aI872
aI935
aI848
aI848
aI848
aI812
aI782
aI758
aI219
aI632
aI303
aI1119
aI1010
aI741
aa(lp851
I855
aI861
aI867
aI1303
aI873
aI934
aI849
aI849
aI849
aI813
aI783
aI759
aI218
aI633
aI302
aI1118
aI1011
aI740
aa(lp852
I856
aI862
aI868
aI1304
aI874
aI933
aI850
aI850
aI850
aI814
aI784
aI760
aI217
aI634
aI301
aI1117
aI1012
aI739
aa(lp853
I857
aI863
aI869
aI1305
aI875
aI932
aI851
aI851
aI851
aI815
aI785
aI761
aI216
aI635
aI300
aI1116
aI1013
aI738
aa(lp854
I858
aI864
aI846
aI852
aI852
aI852
aI931
aI876
aI979
aI816
aI786
aI762
aI227
aI636
aI311
aI1127
aI1014
aI749
aa(lp855
I859
aI865
aI847
aI853
aI853
aI853
aI930
aI877
aI978
aI817
aI787
aI763
aI226
aI637
aI310
aI1126
aI1015
aI748
aa(lp856
I860
aI866
aI848
aI854
aI854
aI854
aI935
aI878
aI983
aI818
aI788
aI764
aI225
aI638
aI309
aI1125
aI1016
aI747
aa(lp857
I861
aI867
aI849
aI855
aI855
aI855
aI934
aI879
aI982
aI819
aI789
aI765
aI224
aI639
aI308
aI1124
aI1017
aI746
aa(lp858
I862
aI868
aI850
aI856
aI856
aI856
aI933
aI880
aI981
aI820
aI790
aI766
aI223
aI640
aI307
aI1123
aI1018
aI745
aa(lp859
I863
aI869
aI851
aI857
aI857
aI857
aI932
aI881
aI980
aI821
aI791
aI767
aI222
aI641
aI306
aI1122
aI1019
aI744
aa(lp860
I864
aI846
aI852
aI858
aI858
aI858
aI858
aI858
aI858
aI822
aI792
aI768
aI645
aI666
aI885
aI1133
aI1020
aI755
aa(lp861
I865
aI847
aI853
aI859
aI859
aI859
aI859
aI859
aI859
aI823
aI793
aI769
aI644
aI667
aI884
aI1132
aI1021
aI754
aa(lp862
I866
aI848
aI854
aI860
aI860
aI860
aI860
aI860
aI860
aI824
aI794
aI770
aI643
aI668
aI883
aI1131
aI1022
aI753
aa(lp863
I867
aI849
aI855
aI861
aI861
aI861
aI861
aI861
aI861
aI825
aI795
aI771
aI642
aI669
aI882
aI1130
aI1023
aI752
aa(lp864
I868
aI850
aI856
aI862
aI862
aI862
aI862
aI862
aI862
aI826
aI796
aI772
aI647
aI670
aI887
aI1129
aI1024
aI751
aa(lp865
I869
aI851
aI857
aI863
aI863
aI863
aI863
aI863
aI863
aI827
aI797
aI773
aI646
aI671
aI886
aI1128
aI1025
aI750
aa(lp866
I846
aI852
aI858
aI864
aI864
aI864
aI864
aI864
aI864
aI828
aI798
aI774
aI242
aI648
aI323
aI1304
aI1135
aI1281
aa(lp867
I847
aI853
aI859
aI865
aI865
aI865
aI865
aI865
aI865
aI829
aI799
aI775
aI243
aI649
aI322
aI1305
aI1134
aI1280
aa(lp868
I848
aI854
aI860
aI866
aI866
aI866
aI866
aI866
aI866
aI830
aI800
aI776
aI244
aI650
aI321
aI1306
aI1139
aI1279
aa(lp869
I849
aI855
aI861
aI867
aI867
aI867
aI867
aI867
aI867
aI831
aI801
aI777
aI245
aI651
aI320
aI1307
aI1138
aI1278
aa(lp870
I850
aI856
aI862
aI868
aI868
aI868
aI868
aI868
aI868
aI832
aI802
aI778
aI240
aI652
aI319
aI1302
aI1137
aI1283
aa(lp871
I851
aI857
aI863
aI869
aI869
aI869
aI869
aI869
aI869
aI833
aI803
aI779
aI241
aI653
aI318
aI1303
aI1136
aI1282
aa(lp872
I870
aI870
aI870
aI931
aI846
aI1306
aI870
aI870
aI870
aI883
aI841
aI805
aI260
aI654
aI329
aI1145
aI1045
aI776
aa(lp873
I871
aI871
aI871
aI930
aI847
aI1307
aI871
aI871
aI871
aI882
aI840
aI804
aI261
aI655
aI328
aI1144
aI1044
aI777
aa(lp874
I872
aI872
aI872
aI935
aI848
aI1302
aI872
aI872
aI872
aI887
aI845
aI809
aI262
aI656
aI327
aI1143
aI1049
aI778
aa(lp875
I873
aI873
aI873
aI934
aI849
aI1303
aI873
aI873
aI873
aI886
aI844
aI808
aI263
aI657
aI326
aI1142
aI1048
aI779
aa(lp876
I874
aI874
aI874
aI933
aI850
aI1304
aI874
aI874
aI874
aI885
aI843
aI807
aI258
aI658
aI325
aI1141
aI1047
aI774
aa(lp877
I875
aI875
aI875
aI932
aI851
aI1305
aI875
aI875
aI875
aI884
aI842
aI806
aI259
aI659
aI324
aI1140
aI1046
aI775
aa(lp878
I876
aI876
aI876
aI876
aI876
aI876
aI979
aI852
aI931
aI834
aI877
aI835
aI284
aI660
aI335
aI1151
aI1069
aI800
aa(lp879
I877
aI877
aI877
aI877
aI877
aI877
aI978
aI853
aI930
aI835
aI876
aI834
aI285
aI661
aI334
aI1150
aI1068
aI801
aa(lp880
I878
aI878
aI878
aI878
aI878
aI878
aI983
aI854
aI935
aI836
aI881
aI839
aI286
aI662
aI333
aI1149
aI1073
aI802
aa(lp881
I879
aI879
aI879
aI879
aI879
aI879
aI982
aI855
aI934
aI837
aI880
aI838
aI287
aI663
aI332
aI1148
aI1072
aI803
aa(lp882
I880
aI880
aI880
aI880
aI880
aI880
aI981
aI856
aI933
aI838
aI879
aI837
aI282
aI664
aI331
aI1147
aI1071
aI798
aa(lp883
I881
aI881
aI881
aI881
aI881
aI881
aI980
aI857
aI932
aI839
aI878
aI836
aI283
aI665
aI330
aI1146
aI1070
aI799
aa(lp884
I882
aI882
aI882
aI882
aI882
aI882
aI882
aI882
aI882
aI840
aI804
aI871
aI861
aI642
aI669
aI1157
aI1099
aI830
aa(lp885
I883
aI883
aI883
aI883
aI883
aI883
aI883
aI883
aI883
aI841
aI805
aI870
aI860
aI643
aI668
aI1156
aI1098
aI831
aa(lp886
I884
aI884
aI884
aI884
aI884
aI884
aI884
aI884
aI884
aI842
aI806
aI875
aI859
aI644
aI667
aI1155
aI1103
aI832
aa(lp887
I885
aI885
aI885
aI885
aI885
aI885
aI885
aI885
aI885
aI843
aI807
aI874
aI858
aI645
aI666
aI1154
aI1102
aI833
aa(lp888
I886
aI886
aI886
aI886
aI886
aI886
aI886
aI886
aI886
aI844
aI808
aI873
aI863
aI646
aI671
aI1153
aI1101
aI828
aa(lp889
I887
aI887
aI887
aI887
aI887
aI887
aI887
aI887
aI887
aI845
aI809
aI872
aI862
aI647
aI670
aI1152
aI1100
aI829
aa(lp890
I894
aI900
aI906
aI1264
aI1289
aI913
aI780
aI936
aI720
aI888
aI888
aI888
aI347
aI672
aI431
aI467
aI1158
aI359
aa(lp891
I895
aI901
aI907
aI1265
aI1288
aI912
aI781
aI937
aI721
aI889
aI889
aI889
aI346
aI673
aI430
aI466
aI1159
aI358
aa(lp892
I896
aI902
aI908
aI1260
aI1287
aI917
aI782
aI938
aI722
aI890
aI890
aI890
aI345
aI674
aI429
aI465
aI1160
aI357
aa(lp893
I897
aI903
aI909
aI1261
aI1286
aI916
aI783
aI939
aI723
aI891
aI891
aI891
aI344
aI675
aI428
aI464
aI1161
aI356
aa(lp894
I898
aI904
aI910
aI1262
aI1285
aI915
aI784
aI940
aI724
aI892
aI892
aI892
aI343
aI676
aI427
aI463
aI1162
aI355
aa(lp895
I899
aI905
aI911
aI1263
aI1284
aI914
aI785
aI941
aI725
aI893
aI893
aI893
aI342
aI677
aI426
aI462
aI1163
aI354
aa(lp896
I900
aI906
aI888
aI721
aI1271
aI762
aI919
aI966
aI943
aI894
aI894
aI894
aI353
aI678
aI437
aI473
aI1164
aI365
aa(lp897
I901
aI907
aI889
aI720
aI1270
aI763
aI918
aI967
aI942
aI895
aI895
aI895
aI352
aI679
aI436
aI472
aI1165
aI364
aa(lp898
I902
aI908
aI890
aI725
aI1269
aI764
aI923
aI968
aI947
aI896
aI896
aI896
aI351
aI680
aI435
aI471
aI1166
aI363
aa(lp899
I903
aI909
aI891
aI724
aI1268
aI765
aI922
aI969
aI946
aI897
aI897
aI897
aI350
aI681
aI434
aI470
aI1167
aI362
aa(lp900
I904
aI910
aI892
aI723
aI1267
aI766
aI921
aI970
aI945
aI898
aI898
aI898
aI349
aI682
aI433
aI469
aI1168
aI361
aa(lp901
I905
aI911
aI893
aI722
aI1266
aI767
aI920
aI971
aI944
aI899
aI899
aI899
aI348
aI683
aI432
aI468
aI1169
aI360
aa(lp902
I906
aI888
aI894
aI727
aI1277
aI768
aI792
aI948
aI733
aI900
aI900
aI900
aI687
aI708
aI927
aI479
aI1170
aI371
aa(lp903
I907
aI889
aI895
aI726
aI1276
aI769
aI793
aI949
aI732
aI901
aI901
aI901
aI686
aI709
aI926
aI478
aI1171
aI370
aa(lp904
I908
aI890
aI896
aI731
aI1275
aI770
aI794
aI950
aI737
aI902
aI902
aI902
aI685
aI710
aI925
aI477
aI1172
aI369
aa(lp905
I909
aI891
aI897
aI730
aI1274
aI771
aI795
aI951
aI736
aI903
aI903
aI903
aI684
aI711
aI924
aI476
aI1173
aI368
aa(lp906
I910
aI892
aI898
aI729
aI1273
aI772
aI796
aI952
aI735
aI904
aI904
aI904
aI689
aI712
aI929
aI475
aI1174
aI367
aa(lp907
I911
aI893
aI899
aI728
aI1272
aI773
aI797
aI953
aI734
aI905
aI905
aI905
aI688
aI713
aI928
aI474
aI1175
aI366
aa(lp908
I888
aI894
aI900
aI739
aI1283
aI774
aI798
aI954
aI745
aI906
aI906
aI906
aI368
aI690
aI449
aI933
aI1200
aI1179
aa(lp909
I889
aI895
aI901
aI738
aI1282
aI775
aI799
aI955
aI744
aI907
aI907
aI907
aI369
aI691
aI448
aI932
aI1201
aI1178
aa(lp910
I890
aI896
aI902
aI743
aI1281
aI776
aI800
aI956
aI749
aI908
aI908
aI908
aI370
aI692
aI447
aI931
aI1202
aI1177
aa(lp911
I891
aI897
aI903
aI742
aI1280
aI777
aI801
aI957
aI748
aI909
aI909
aI909
aI371
aI693
aI446
aI930
aI1203
aI1176
aa(lp912
I892
aI898
aI904
aI741
aI1279
aI778
aI802
aI958
aI747
aI910
aI910
aI910
aI366
aI694
aI445
aI935
aI1204
aI1181
aa(lp913
I893
aI899
aI905
aI740
aI1278
aI779
aI803
aI959
aI746
aI911
aI911
aI911
aI367
aI695
aI444
aI934
aI1205
aI1180
aa(lp914
I912
aI912
aI912
aI889
aI1265
aI1288
aI804
aI960
aI763
aI930
aI924
aI918
aI386
aI696
aI455
aI491
aI1182
aI392
aa(lp915
I913
aI913
aI913
aI888
aI1264
aI1289
aI805
aI961
aI762
aI931
aI925
aI919
aI387
aI697
aI454
aI490
aI1183
aI393
aa(lp916
I914
aI914
aI914
aI893
aI1263
aI1284
aI806
aI962
aI767
aI932
aI926
aI920
aI388
aI698
aI453
aI489
aI1184
aI394
aa(lp917
I915
aI915
aI915
aI892
aI1262
aI1285
aI807
aI963
aI766
aI933
aI927
aI921
aI389
aI699
aI452
aI488
aI1185
aI395
aa(lp918
I916
aI916
aI916
aI891
aI1261
aI1286
aI808
aI964
aI765
aI934
aI928
aI922
aI384
aI700
aI451
aI487
aI1186
aI390
aa(lp919
I917
aI917
aI917
aI890
aI1260
aI1287
aI809
aI965
aI764
aI935
aI929
aI923
aI385
aI701
aI450
aI486
aI1187
aI391
aa(lp920
I918
aI918
aI918
aI781
aI1295
aI805
aI967
aI942
aI895
aI912
aI930
aI924
aI410
aI702
aI461
aI497
aI1188
aI416
aa(lp921
I919
aI919
aI919
aI780
aI1294
aI804
aI966
aI943
aI894
aI913
aI931
aI925
aI411
aI703
aI460
aI496
aI1189
aI417
aa(lp922
I920
aI920
aI920
aI785
aI1293
aI809
aI971
aI944
aI899
aI914
aI932
aI926
aI412
aI704
aI459
aI495
aI1190
aI418
aa(lp923
I921
aI921
aI921
aI784
aI1292
aI808
aI970
aI945
aI898
aI915
aI933
aI927
aI413
aI705
aI458
aI494
aI1191
aI419
aa(lp924
I922
aI922
aI922
aI783
aI1291
aI807
aI969
aI946
aI897
aI916
aI934
aI928
aI408
aI706
aI457
aI493
aI1192
aI414
aa(lp925
I923
aI923
aI923
aI782
aI1290
aI806
aI968
aI947
aI896
aI917
aI935
aI929
aI409
aI707
aI456
aI492
aI1193
aI415
aa(lp926
I924
aI924
aI924
aI811
aI1301
aI835
aI841
aI972
aI817
aI918
aI912
aI930
aI903
aI684
aI711
aI503
aI1194
aI446
aa(lp927
I925
aI925
aI925
aI810
aI1300
aI834
aI840
aI973
aI816
aI919
aI913
aI931
aI902
aI685
aI710
aI502
aI1195
aI447
aa(lp928
I926
aI926
aI926
aI815
aI1299
aI839
aI845
aI974
aI821
aI920
aI914
aI932
aI901
aI686
aI709
aI501
aI1196
aI448
aa(lp929
I927
aI927
aI927
aI814
aI1298
aI838
aI844
aI975
aI820
aI921
aI915
aI933
aI900
aI687
aI708
aI500
aI1197
aI449
aa(lp930
I928
aI928
aI928
aI813
aI1297
aI837
aI843
aI976
aI819
aI922
aI916
aI934
aI905
aI688
aI713
aI499
aI1198
aI444
aa(lp931
I929
aI929
aI929
aI812
aI1296
aI836
aI842
aI977
aI818
aI923
aI917
aI935
aI904
aI689
aI712
aI498
aI1199
aI445
aa(lp932
I930
aI930
aI930
aI847
aI1307
aI871
aI877
aI978
aI853
aI924
aI918
aI912
aI476
aI714
aI500
aI1203
aI1176
aI909
aa(lp933
I931
aI931
aI931
aI846
aI1306
aI870
aI876
aI979
aI852
aI925
aI919
aI913
aI477
aI715
aI501
aI1202
aI1177
aI908
aa(lp934
I932
aI932
aI932
aI851
aI1305
aI875
aI881
aI980
aI857
aI926
aI920
aI914
aI478
aI716
aI502
aI1201
aI1178
aI907
aa(lp935
I933
aI933
aI933
aI850
aI1304
aI874
aI880
aI981
aI856
aI927
aI921
aI915
aI479
aI717
aI503
aI1200
aI1179
aI906
aa(lp936
I934
aI934
aI934
aI849
aI1303
aI873
aI879
aI982
aI855
aI928
aI922
aI916
aI474
aI718
aI498
aI1205
aI1180
aI911
aa(lp937
I935
aI935
aI935
aI848
aI1302
aI872
aI878
aI983
aI854
aI929
aI923
aI917
aI475
aI719
aI499
aI1204
aI1181
aI910
aa(lp938
I942
aI948
aI954
aI1318
aI960
aI984
aI720
aI888
aI780
aI936
aI936
aI936
aI131
aI941
aI126
aI635
aI1206
aI527
aa(lp939
I943
aI949
aI955
aI1319
aI961
aI985
aI721
aI889
aI781
aI937
aI937
aI937
aI130
aI940
aI127
aI634
aI1207
aI526
aa(lp940
I944
aI950
aI956
aI1314
aI962
aI986
aI722
aI890
aI782
aI938
aI938
aI938
aI129
aI939
aI128
aI633
aI1208
aI525
aa(lp941
I945
aI951
aI957
aI1315
aI963
aI987
aI723
aI891
aI783
aI939
aI939
aI939
aI128
aI938
aI129
aI632
aI1209
aI524
aa(lp942
I946
aI952
aI958
aI1316
aI964
aI988
aI724
aI892
aI784
aI940
aI940
aI940
aI127
aI937
aI130
aI631
aI1210
aI523
aa(lp943
I947
aI953
aI959
aI1317
aI965
aI989
aI725
aI893
aI785
aI941
aI941
aI941
aI126
aI936
aI131
aI630
aI1211
aI522
aa(lp944
I948
aI954
aI936
aI942
aI942
aI942
aI895
aI918
aI967
aI942
aI942
aI942
aI137
aI947
aI132
aI641
aI1212
aI533
aa(lp945
I949
aI955
aI937
aI943
aI943
aI943
aI894
aI919
aI966
aI943
aI943
aI943
aI136
aI946
aI133
aI640
aI1213
aI532
aa(lp946
I950
aI956
aI938
aI944
aI944
aI944
aI899
aI920
aI971
aI944
aI944
aI944
aI135
aI945
aI134
aI639
aI1214
aI531
aa(lp947
I951
aI957
aI939
aI945
aI945
aI945
aI898
aI921
aI970
aI945
aI945
aI945
aI134
aI944
aI135
aI638
aI1215
aI530
aa(lp948
I952
aI958
aI940
aI946
aI946
aI946
aI897
aI922
aI969
aI946
aI946
aI946
aI133
aI943
aI136
aI637
aI1216
aI529
aa(lp949
I953
aI959
aI941
aI947
aI947
aI947
aI896
aI923
aI968
aI947
aI947
aI947
aI132
aI942
aI137
aI636
aI1217
aI528
aa(lp950
I954
aI936
aI942
aI948
aI948
aI948
aI733
aI900
aI792
aI948
aI948
aI948
aI609
aI977
aI826
aI647
aI1218
aI539
aa(lp951
I955
aI937
aI943
aI949
aI949
aI949
aI732
aI901
aI793
aI949
aI949
aI949
aI608
aI976
aI827
aI646
aI1219
aI538
aa(lp952
I956
aI938
aI944
aI950
aI950
aI950
aI737
aI902
aI794
aI950
aI950
aI950
aI607
aI975
aI822
aI645
aI1220
aI537
aa(lp953
I957
aI939
aI945
aI951
aI951
aI951
aI736
aI903
aI795
aI951
aI951
aI951
aI606
aI974
aI823
aI644
aI1221
aI536
aa(lp954
I958
aI940
aI946
aI952
aI952
aI952
aI735
aI904
aI796
aI952
aI952
aI952
aI611
aI973
aI824
aI643
aI1222
aI535
aa(lp955
I959
aI941
aI947
aI953
aI953
aI953
aI734
aI905
aI797
aI953
aI953
aI953
aI610
aI972
aI825
aI642
aI1223
aI534
aa(lp956
I936
aI942
aI948
aI954
aI954
aI954
aI745
aI906
aI798
aI954
aI954
aI954
aI152
aI959
aI151
aI981
aI1248
aI1227
aa(lp957
I937
aI943
aI949
aI955
aI955
aI955
aI744
aI907
aI799
aI955
aI955
aI955
aI153
aI958
aI150
aI980
aI1249
aI1226
aa(lp958
I938
aI944
aI950
aI956
aI956
aI956
aI749
aI908
aI800
aI956
aI956
aI956
aI154
aI957
aI155
aI979
aI1250
aI1225
aa(lp959
I939
aI945
aI951
aI957
aI957
aI957
aI748
aI909
aI801
aI957
aI957
aI957
aI155
aI956
aI154
aI978
aI1251
aI1224
aa(lp960
I940
aI946
aI952
aI958
aI958
aI958
aI747
aI910
aI802
aI958
aI958
aI958
aI150
aI955
aI153
aI983
aI1252
aI1229
aa(lp961
I941
aI947
aI953
aI959
aI959
aI959
aI746
aI911
aI803
aI959
aI959
aI959
aI151
aI954
aI152
aI982
aI1253
aI1228
aa(lp962
I960
aI960
aI960
aI984
aI936
aI1318
aI763
aI912
aI804
aI978
aI972
aI966
aI170
aI965
aI169
aI659
aI1230
aI560
aa(lp963
I961
aI961
aI961
aI985
aI937
aI1319
aI762
aI913
aI805
aI979
aI973
aI967
aI171
aI964
aI168
aI658
aI1231
aI561
aa(lp964
I962
aI962
aI962
aI986
aI938
aI1314
aI767
aI914
aI806
aI980
aI974
aI968
aI172
aI963
aI173
aI657
aI1232
aI562
aa(lp965
I963
aI963
aI963
aI987
aI939
aI1315
aI766
aI915
aI807
aI981
aI975
aI969
aI173
aI962
aI172
aI656
aI1233
aI563
aa(lp966
I964
aI964
aI964
aI988
aI940
aI1316
aI765
aI916
aI808
aI982
aI976
aI970
aI168
aI961
aI171
aI655
aI1234
aI558
aa(lp967
I965
aI965
aI965
aI989
aI941
aI1317
aI764
aI917
aI809
aI983
aI977
aI971
aI169
aI960
aI170
aI654
aI1235
aI559
aa(lp968
I966
aI966
aI966
aI966
aI966
aI966
aI943
aI894
aI919
aI960
aI978
aI972
aI194
aI971
aI193
aI665
aI1236
aI584
aa(lp969
I967
aI967
aI967
aI967
aI967
aI967
aI942
aI895
aI918
aI961
aI979
aI973
aI195
aI970
aI192
aI664
aI1237
aI585
aa(lp970
I968
aI968
aI968
aI968
aI968
aI968
aI947
aI896
aI923
aI962
aI980
aI974
aI196
aI969
aI197
aI663
aI1238
aI586
aa(lp971
I969
aI969
aI969
aI969
aI969
aI969
aI946
aI897
aI922
aI963
aI981
aI975
aI197
aI968
aI196
aI662
aI1239
aI587
aa(lp972
I970
aI970
aI970
aI970
aI970
aI970
aI945
aI898
aI921
aI964
aI982
aI976
aI192
aI967
aI195
aI661
aI1240
aI582
aa(lp973
I971
aI971
aI971
aI971
aI971
aI971
aI944
aI899
aI920
aI965
aI983
aI977
aI193
aI966
aI194
aI660
aI1241
aI583
aa(lp974
I972
aI972
aI972
aI972
aI972
aI972
aI817
aI924
aI841
aI966
aI960
aI978
aI825
aI953
aI610
aI671
aI1242
aI614
aa(lp975
I973
aI973
aI973
aI973
aI973
aI973
aI816
aI925
aI840
aI967
aI961
aI979
aI824
aI952
aI611
aI670
aI1243
aI615
aa(lp976
I974
aI974
aI974
aI974
aI974
aI974
aI821
aI926
aI845
aI968
aI962
aI980
aI823
aI951
aI606
aI669
aI1244
aI616
aa(lp977
I975
aI975
aI975
aI975
aI975
aI975
aI820
aI927
aI844
aI969
aI963
aI981
aI822
aI950
aI607
aI668
aI1245
aI617
aa(lp978
I976
aI976
aI976
aI976
aI976
aI976
aI819
aI928
aI843
aI970
aI964
aI982
aI827
aI949
aI608
aI667
aI1246
aI612
aa(lp979
I977
aI977
aI977
aI977
aI977
aI977
aI818
aI929
aI842
aI971
aI965
aI983
aI826
aI948
aI609
aI666
aI1247
aI613
aa(lp980
I978
aI978
aI978
aI978
aI978
aI978
aI853
aI930
aI877
aI972
aI966
aI960
aI315
aI983
aI316
aI1251
aI1224
aI957
aa(lp981
I979
aI979
aI979
aI979
aI979
aI979
aI852
aI931
aI876
aI973
aI967
aI961
aI314
aI982
aI317
aI1250
aI1225
aI956
aa(lp982
I980
aI980
aI980
aI980
aI980
aI980
aI857
aI932
aI881
aI974
aI968
aI962
aI313
aI981
aI312
aI1249
aI1226
aI955
aa(lp983
I981
aI981
aI981
aI981
aI981
aI981
aI856
aI933
aI880
aI975
aI969
aI963
aI312
aI980
aI313
aI1248
aI1227
aI954
aa(lp984
I982
aI982
aI982
aI982
aI982
aI982
aI855
aI934
aI879
aI976
aI970
aI964
aI317
aI979
aI314
aI1253
aI1228
aI959
aa(lp985
I983
aI983
aI983
aI983
aI983
aI983
aI854
aI935
aI878
aI977
aI971
aI965
aI316
aI978
aI315
aI1252
aI1229
aI958
aa(lp986
I984
aI984
aI984
aI936
aI1318
aI960
aI787
aI985
aI786
aI984
aI984
aI984
aI441
aI989
aI442
aI716
aI1254
aI692
aa(lp987
I985
aI985
aI985
aI937
aI1319
aI961
aI786
aI984
aI787
aI985
aI985
aI985
aI440
aI988
aI443
aI717
aI1255
aI693
aa(lp988
I986
aI986
aI986
aI938
aI1314
aI962
aI791
aI989
aI788
aI986
aI986
aI986
aI439
aI987
aI438
aI718
aI1256
aI694
aa(lp989
I987
aI987
aI987
aI939
aI1315
aI963
aI790
aI988
aI789
aI987
aI987
aI987
aI438
aI986
aI439
aI719
aI1257
aI695
aa(lp990
I988
aI988
aI988
aI940
aI1316
aI964
aI789
aI987
aI790
aI988
aI988
aI988
aI443
aI985
aI440
aI714
aI1258
aI690
aa(lp991
I989
aI989
aI989
aI941
aI1317
aI965
aI788
aI986
aI791
aI989
aI989
aI989
aI442
aI984
aI441
aI715
aI1259
aI691
aa(lp992
I1002
aI1020
aI1009
aI1036
aI379
aI339
aI1158
aI1050
aI1206
aI990
aI990
aI990
aI990
aI990
aI990
aI6
aI720
aI210
aa(lp993
I1003
aI1021
aI1008
aI1037
aI378
aI338
aI1159
aI1051
aI1207
aI991
aI991
aI991
aI991
aI991
aI991
aI7
aI721
aI211
aa(lp994
I1004
aI1022
aI1013
aI1032
aI383
aI337
aI1160
aI1052
aI1208
aI992
aI992
aI992
aI992
aI992
aI992
aI8
aI722
aI212
aa(lp995
I1005
aI1023
aI1012
aI1033
aI382
aI336
aI1161
aI1053
aI1209
aI993
aI993
aI993
aI993
aI993
aI993
aI9
aI723
aI213
aa(lp996
I1006
aI1024
aI1011
aI1034
aI381
aI341
aI1162
aI1054
aI1210
aI994
aI994
aI994
aI994
aI994
aI994
aI10
aI724
aI214
aa(lp997
I1007
aI1025
aI1010
aI1035
aI380
aI340
aI1163
aI1055
aI1211
aI995
aI995
aI995
aI995
aI995
aI995
aI11
aI725
aI215
aa(lp998
I1014
aI997
aI1015
aI1042
aI385
aI345
aI996
aI996
aI996
aI996
aI996
aI996
aI1206
aI1080
aI1260
aI12
aI726
aI216
aa(lp999
I1015
aI996
aI1014
aI1043
aI384
aI344
aI997
aI997
aI997
aI997
aI997
aI997
aI1207
aI1081
aI1261
aI13
aI727
aI217
aa(lp1000
I1016
aI1001
aI1019
aI1038
aI389
aI343
aI998
aI998
aI998
aI998
aI998
aI998
aI1208
aI1082
aI1262
aI14
aI728
aI218
aa(lp1001
I1017
aI1000
aI1018
aI1039
aI388
aI342
aI999
aI999
aI999
aI999
aI999
aI999
aI1209
aI1083
aI1263
aI15
aI729
aI219
aa(lp1002
I1018
aI999
aI1017
aI1040
aI387
aI347
aI1000
aI1000
aI1000
aI1000
aI1000
aI1000
aI1210
aI1084
aI1264
aI16
aI730
aI220
aa(lp1003
I1019
aI998
aI1016
aI1041
aI386
aI346
aI1001
aI1001
aI1001
aI1001
aI1001
aI1001
aI1211
aI1085
aI1265
aI17
aI731
aI221
aa(lp1004
I1020
aI1009
aI990
aI36
aI348
aI2
aI1171
aI1063
aI1219
aI1002
aI1002
aI1002
aI1212
aI1086
aI1266
aI18
aI732
aI222
aa(lp1005
I1021
aI1008
aI991
aI37
aI349
aI3
aI1170
aI1062
aI1218
aI1003
aI1003
aI1003
aI1213
aI1087
aI1267
aI19
aI733
aI223
aa(lp1006
I1022
aI1013
aI992
aI38
aI350
aI4
aI1175
aI1067
aI1223
aI1004
aI1004
aI1004
aI1214
aI1088
aI1268
aI20
aI734
aI224
aa(lp1007
I1023
aI1012
aI993
aI39
aI351
aI5
aI1174
aI1066
aI1222
aI1005
aI1005
aI1005
aI1215
aI1089
aI1269
aI21
aI735
aI225
aa(lp1008
I1024
aI1011
aI994
aI40
aI352
aI0
aI1173
aI1065
aI1221
aI1006
aI1006
aI1006
aI1216
aI1090
aI1270
aI22
aI736
aI226
aa(lp1009
I1025
aI1010
aI995
aI41
aI353
aI1
aI1172
aI1064
aI1220
aI1007
aI1007
aI1007
aI1217
aI1091
aI1271
aI23
aI737
aI227
aa(lp1010
I991
aI1003
aI1021
aI1048
aI391
aI357
aI1008
aI1008
aI1008
aI1008
aI1008
aI1008
aI1008
aI1008
aI1008
aI743
aI846
aI1121
aa(lp1011
I990
aI1002
aI1020
aI1049
aI390
aI356
aI1009
aI1009
aI1009
aI1009
aI1009
aI1009
aI1009
aI1009
aI1009
aI742
aI847
aI1120
aa(lp1012
I995
aI1007
aI1025
aI1044
aI395
aI355
aI1010
aI1010
aI1010
aI1010
aI1010
aI1010
aI1010
aI1010
aI1010
aI741
aI848
aI1119
aa(lp1013
I994
aI1006
aI1024
aI1045
aI394
aI354
aI1011
aI1011
aI1011
aI1011
aI1011
aI1011
aI1011
aI1011
aI1011
aI740
aI849
aI1118
aa(lp1014
I993
aI1005
aI1023
aI1046
aI393
aI359
aI1012
aI1012
aI1012
aI1012
aI1012
aI1012
aI1012
aI1012
aI1012
aI739
aI850
aI1117
aa(lp1015
I992
aI1004
aI1022
aI1047
aI392
aI358
aI1013
aI1013
aI1013
aI1013
aI1013
aI1013
aI1013
aI1013
aI1013
aI738
aI851
aI1116
aa(lp1016
I997
aI1015
aI996
aI48
aI360
aI8
aI1177
aI1069
aI1225
aI1014
aI1014
aI1014
aI1014
aI1014
aI1014
aI749
aI852
aI1127
aa(lp1017
I996
aI1014
aI997
aI49
aI361
aI9
aI1176
aI1068
aI1224
aI1015
aI1015
aI1015
aI1015
aI1015
aI1015
aI748
aI853
aI1126
aa(lp1018
I1001
aI1019
aI998
aI50
aI362
aI10
aI1181
aI1073
aI1229
aI1016
aI1016
aI1016
aI1016
aI1016
aI1016
aI747
aI854
aI1125
aa(lp1019
I1000
aI1018
aI999
aI51
aI363
aI11
aI1180
aI1072
aI1228
aI1017
aI1017
aI1017
aI1017
aI1017
aI1017
aI746
aI855
aI1124
aa(lp1020
I999
aI1017
aI1000
aI52
aI364
aI6
aI1179
aI1071
aI1227
aI1018
aI1018
aI1018
aI1018
aI1018
aI1018
aI745
aI856
aI1123
aa(lp1021
I998
aI1016
aI1001
aI53
aI365
aI7
aI1178
aI1070
aI1226
aI1019
aI1019
aI1019
aI1019
aI1019
aI1019
aI744
aI857
aI1122
aa(lp1022
I1009
aI990
aI1002
aI54
aI366
aI14
aI1020
aI1020
aI1020
aI1020
aI1020
aI1020
aI1225
aI1099
aI1279
aI755
aI858
aI1133
aa(lp1023
I1008
aI991
aI1003
aI55
aI367
aI15
aI1021
aI1021
aI1021
aI1021
aI1021
aI1021
aI1224
aI1098
aI1278
aI754
aI859
aI1132
aa(lp1024
I1013
aI992
aI1004
aI56
aI368
aI16
aI1022
aI1022
aI1022
aI1022
aI1022
aI1022
aI1229
aI1103
aI1283
aI753
aI860
aI1131
aa(lp1025
I1012
aI993
aI1005
aI57
aI369
aI17
aI1023
aI1023
aI1023
aI1023
aI1023
aI1023
aI1228
aI1102
aI1282
aI752
aI861
aI1130
aa(lp1026
I1011
aI994
aI1006
aI58
aI370
aI12
aI1024
aI1024
aI1024
aI1024
aI1024
aI1024
aI1227
aI1101
aI1281
aI751
aI862
aI1129
aa(lp1027
I1010
aI995
aI1007
aI59
aI371
aI13
aI1025
aI1025
aI1025
aI1025
aI1025
aI1025
aI1226
aI1100
aI1280
aI750
aI863
aI1128
aa(lp1028
I1032
aI1038
aI1044
aI1185
aI373
aI1160
aI1026
aI1026
aI1026
aI1116
aI1080
aI1050
aI1026
aI1026
aI1026
aI47
aI756
aI246
aa(lp1029
I1033
aI1039
aI1045
aI1184
aI372
aI1161
aI1027
aI1027
aI1027
aI1117
aI1081
aI1051
aI1027
aI1027
aI1027
aI46
aI757
aI247
aa(lp1030
I1034
aI1040
aI1046
aI1183
aI377
aI1162
aI1028
aI1028
aI1028
aI1118
aI1082
aI1052
aI1028
aI1028
aI1028
aI45
aI758
aI248
aa(lp1031
I1035
aI1041
aI1047
aI1182
aI376
aI1163
aI1029
aI1029
aI1029
aI1119
aI1083
aI1053
aI1029
aI1029
aI1029
aI44
aI759
aI249
aa(lp1032
I1036
aI1042
aI1048
aI1187
aI375
aI1158
aI1030
aI1030
aI1030
aI1120
aI1084
aI1054
aI1030
aI1030
aI1030
aI43
aI760
aI250
aa(lp1033
I1037
aI1043
aI1049
aI1186
aI374
aI1159
aI1031
aI1031
aI1031
aI1121
aI1085
aI1055
aI1031
aI1031
aI1031
aI42
aI761
aI251
aa(lp1034
I1038
aI1044
aI1026
aI383
aI337
aI992
aI1183
aI1075
aI1231
aI1122
aI1086
aI1056
aI1032
aI1032
aI1032
aI53
aI762
aI252
aa(lp1035
I1039
aI1045
aI1027
aI382
aI336
aI993
aI1182
aI1074
aI1230
aI1123
aI1087
aI1057
aI1033
aI1033
aI1033
aI52
aI763
aI253
aa(lp1036
I1040
aI1046
aI1028
aI381
aI341
aI994
aI1187
aI1079
aI1235
aI1124
aI1088
aI1058
aI1034
aI1034
aI1034
aI51
aI764
aI254
aa(lp1037
I1041
aI1047
aI1029
aI380
aI340
aI995
aI1186
aI1078
aI1234
aI1125
aI1089
aI1059
aI1035
aI1035
aI1035
aI50
aI765
aI255
aa(lp1038
I1042
aI1048
aI1030
aI379
aI339
aI990
aI1185
aI1077
aI1233
aI1126
aI1090
aI1060
aI1036
aI1036
aI1036
aI49
aI766
aI256
aa(lp1039
I1043
aI1049
aI1031
aI378
aI338
aI991
aI1184
aI1076
aI1232
aI1127
aI1091
aI1061
aI1037
aI1037
aI1037
aI48
aI767
aI257
aa(lp1040
I1044
aI1026
aI1032
aI389
aI343
aI998
aI1038
aI1038
aI1038
aI1128
aI1092
aI1062
aI1231
aI1105
aI1285
aI59
aI768
aI258
aa(lp1041
I1045
aI1027
aI1033
aI388
aI342
aI999
aI1039
aI1039
aI1039
aI1129
aI1093
aI1063
aI1230
aI1104
aI1284
aI58
aI769
aI259
aa(lp1042
I1046
aI1028
aI1034
aI387
aI347
aI1000
aI1040
aI1040
aI1040
aI1130
aI1094
aI1064
aI1235
aI1109
aI1289
aI57
aI770
aI260
aa(lp1043
I1047
aI1029
aI1035
aI386
aI346
aI1001
aI1041
aI1041
aI1041
aI1131
aI1095
aI1065
aI1234
aI1108
aI1288
aI56
aI771
aI261
aa(lp1044
I1048
aI1030
aI1036
aI385
aI345
aI996
aI1042
aI1042
aI1042
aI1132
aI1096
aI1066
aI1233
aI1107
aI1287
aI55
aI772
aI262
aa(lp1045
I1049
aI1031
aI1037
aI384
aI344
aI997
aI1043
aI1043
aI1043
aI1133
aI1097
aI1067
aI1232
aI1106
aI1286
aI54
aI773
aI263
aa(lp1046
I1026
aI1032
aI1038
aI395
aI355
aI1010
aI1044
aI1044
aI1044
aI1134
aI1098
aI1068
aI1044
aI1044
aI1044
aI777
aI871
aI1144
aa(lp1047
I1027
aI1033
aI1039
aI394
aI354
aI1011
aI1045
aI1045
aI1045
aI1135
aI1099
aI1069
aI1045
aI1045
aI1045
aI776
aI870
aI1145
aa(lp1048
I1028
aI1034
aI1040
aI393
aI359
aI1012
aI1046
aI1046
aI1046
aI1136
aI1100
aI1070
aI1046
aI1046
aI1046
aI775
aI875
aI1140
aa(lp1049
I1029
aI1035
aI1041
aI392
aI358
aI1013
aI1047
aI1047
aI1047
aI1137
aI1101
aI1071
aI1047
aI1047
aI1047
aI774
aI874
aI1141
aa(lp1050
I1030
aI1036
aI1042
aI391
aI357
aI1008
aI1048
aI1048
aI1048
aI1138
aI1102
aI1072
aI1048
aI1048
aI1048
aI779
aI873
aI1142
aa(lp1051
I1031
aI1037
aI1043
aI390
aI356
aI1009
aI1049
aI1049
aI1049
aI1139
aI1103
aI1073
aI1049
aI1049
aI1049
aI778
aI872
aI1143
aa(lp1052
I1056
aI1062
aI1068
aI1077
aI420
aI399
aI1206
aI990
aI1158
aI1026
aI1116
aI1080
aI1050
aI1050
aI1050
aI83
aI780
aI270
aa(lp1053
I1057
aI1063
aI1069
aI1076
aI421
aI398
aI1207
aI991
aI1159
aI1027
aI1117
aI1081
aI1051
aI1051
aI1051
aI82
aI781
aI271
aa(lp1054
I1058
aI1064
aI1070
aI1075
aI422
aI397
aI1208
aI992
aI1160
aI1028
aI1118
aI1082
aI1052
aI1052
aI1052
aI81
aI782
aI272
aa(lp1055
I1059
aI1065
aI1071
aI1074
aI423
aI396
aI1209
aI993
aI1161
aI1029
aI1119
aI1083
aI1053
aI1053
aI1053
aI80
aI783
aI273
aa(lp1056
I1060
aI1066
aI1072
aI1079
aI424
aI401
aI1210
aI994
aI1162
aI1030
aI1120
aI1084
aI1054
aI1054
aI1054
aI79
aI784
aI274
aa(lp1057
I1061
aI1067
aI1073
aI1078
aI425
aI400
aI1211
aI995
aI1163
aI1031
aI1121
aI1085
aI1055
aI1055
aI1055
aI78
aI785
aI275
aa(lp1058
I1062
aI1068
aI1050
aI107
aI402
aI62
aI1254
aI1057
aI1255
aI1032
aI1122
aI1086
aI1056
aI1056
aI1056
aI89
aI786
aI276
aa(lp1059
I1063
aI1069
aI1051
aI106
aI403
aI63
aI1255
aI1056
aI1254
aI1033
aI1123
aI1087
aI1057
aI1057
aI1057
aI88
aI787
aI277
aa(lp1060
I1064
aI1070
aI1052
aI105
aI404
aI64
aI1256
aI1061
aI1259
aI1034
aI1124
aI1088
aI1058
aI1058
aI1058
aI87
aI788
aI278
aa(lp1061
I1065
aI1071
aI1053
aI104
aI405
aI65
aI1257
aI1060
aI1258
aI1035
aI1125
aI1089
aI1059
aI1059
aI1059
aI86
aI789
aI279
aa(lp1062
I1066
aI1072
aI1054
aI103
aI406
aI60
aI1258
aI1059
aI1257
aI1036
aI1126
aI1090
aI1060
aI1060
aI1060
aI85
aI790
aI280
aa(lp1063
I1067
aI1073
aI1055
aI102
aI407
aI61
aI1259
aI1058
aI1256
aI1037
aI1127
aI1091
aI1061
aI1061
aI1061
aI84
aI791
aI281
aa(lp1064
I1068
aI1050
aI1056
aI113
aI408
aI68
aI1218
aI1003
aI1170
aI1038
aI1128
aI1092
aI1237
aI1111
aI1291
aI95
aI792
aI282
aa(lp1065
I1069
aI1051
aI1057
aI112
aI409
aI69
aI1219
aI1002
aI1171
aI1039
aI1129
aI1093
aI1236
aI1110
aI1290
aI94
aI793
aI283
aa(lp1066
I1070
aI1052
aI1058
aI111
aI410
aI70
aI1220
aI1007
aI1172
aI1040
aI1130
aI1094
aI1241
aI1115
aI1295
aI93
aI794
aI284
aa(lp1067
I1071
aI1053
aI1059
aI110
aI411
aI71
aI1221
aI1006
aI1173
aI1041
aI1131
aI1095
aI1240
aI1114
aI1294
aI92
aI795
aI285
aa(lp1068
I1072
aI1054
aI1060
aI109
aI412
aI66
aI1222
aI1005
aI1174
aI1042
aI1132
aI1096
aI1239
aI1113
aI1293
aI91
aI796
aI286
aa(lp1069
I1073
aI1055
aI1061
aI108
aI413
aI67
aI1223
aI1004
aI1175
aI1043
aI1133
aI1097
aI1238
aI1112
aI1292
aI90
aI797
aI287
aa(lp1070
I1050
aI1056
aI1062
aI119
aI414
aI80
aI1224
aI1015
aI1176
aI1044
aI1134
aI1098
aI1068
aI1068
aI1068
aI801
aI877
aI1150
aa(lp1071
I1051
aI1057
aI1063
aI118
aI415
aI81
aI1225
aI1014
aI1177
aI1045
aI1135
aI1099
aI1069
aI1069
aI1069
aI800
aI876
aI1151
aa(lp1072
I1052
aI1058
aI1064
aI117
aI416
aI82
aI1226
aI1019
aI1178
aI1046
aI1136
aI1100
aI1070
aI1070
aI1070
aI799
aI881
aI1146
aa(lp1073
I1053
aI1059
aI1065
aI116
aI417
aI83
aI1227
aI1018
aI1179
aI1047
aI1137
aI1101
aI1071
aI1071
aI1071
aI798
aI880
aI1147
aa(lp1074
I1054
aI1060
aI1066
aI115
aI418
aI78
aI1228
aI1017
aI1180
aI1048
aI1138
aI1102
aI1072
aI1072
aI1072
aI803
aI879
aI1148
aa(lp1075
I1055
aI1061
aI1067
aI114
aI419
aI79
aI1229
aI1016
aI1181
aI1049
aI1139
aI1103
aI1073
aI1073
aI1073
aI802
aI878
aI1149
aa(lp1076
I1074
aI1074
aI1074
aI423
aI396
aI1053
aI1230
aI1033
aI1182
aI1141
aI1152
aI1110
aI1074
aI1074
aI1074
aI116
aI804
aI294
aa(lp1077
I1075
aI1075
aI1075
aI422
aI397
aI1052
aI1231
aI1032
aI1183
aI1140
aI1153
aI1111
aI1075
aI1075
aI1075
aI117
aI805
aI295
aa(lp1078
I1076
aI1076
aI1076
aI421
aI398
aI1051
aI1232
aI1037
aI1184
aI1145
aI1154
aI1112
aI1076
aI1076
aI1076
aI118
aI806
aI296
aa(lp1079
I1077
aI1077
aI1077
aI420
aI399
aI1050
aI1233
aI1036
aI1185
aI1144
aI1155
aI1113
aI1077
aI1077
aI1077
aI119
aI807
aI297
aa(lp1080
I1078
aI1078
aI1078
aI425
aI400
aI1055
aI1234
aI1035
aI1186
aI1143
aI1156
aI1114
aI1078
aI1078
aI1078
aI114
aI808
aI298
aa(lp1081
I1079
aI1079
aI1079
aI424
aI401
aI1054
aI1235
aI1034
aI1187
aI1142
aI1157
aI1115
aI1079
aI1079
aI1079
aI115
aI809
aI299
aa(lp1082
I1086
aI1092
aI1098
aI1107
aI450
aI429
aI1080
aI1080
aI1080
aI1050
aI1026
aI1116
aI1260
aI996
aI1206
aI143
aI810
aI300
aa(lp1083
I1087
aI1093
aI1099
aI1106
aI451
aI428
aI1081
aI1081
aI1081
aI1051
aI1027
aI1117
aI1261
aI997
aI1207
aI142
aI811
aI301
aa(lp1084
I1088
aI1094
aI1100
aI1105
aI452
aI427
aI1082
aI1082
aI1082
aI1052
aI1028
aI1118
aI1262
aI998
aI1208
aI141
aI812
aI302
aa(lp1085
I1089
aI1095
aI1101
aI1104
aI453
aI426
aI1083
aI1083
aI1083
aI1053
aI1029
aI1119
aI1263
aI999
aI1209
aI140
aI813
aI303
aa(lp1086
I1090
aI1096
aI1102
aI1109
aI454
aI431
aI1084
aI1084
aI1084
aI1054
aI1030
aI1120
aI1264
aI1000
aI1210
aI139
aI814
aI304
aa(lp1087
I1091
aI1097
aI1103
aI1108
aI455
aI430
aI1085
aI1085
aI1085
aI1055
aI1031
aI1121
aI1265
aI1001
aI1211
aI138
aI815
aI305
aa(lp1088
I1092
aI1098
aI1080
aI167
aI432
aI122
aI1195
aI1110
aI1243
aI1056
aI1032
aI1122
aI1266
aI1002
aI1212
aI149
aI816
aI306
aa(lp1089
I1093
aI1099
aI1081
aI166
aI433
aI123
aI1194
aI1111
aI1242
aI1057
aI1033
aI1123
aI1267
aI1003
aI1213
aI148
aI817
aI307
aa(lp1090
I1094
aI1100
aI1082
aI165
aI434
aI124
aI1199
aI1112
aI1247
aI1058
aI1034
aI1124
aI1268
aI1004
aI1214
aI147
aI818
aI308
aa(lp1091
I1095
aI1101
aI1083
aI164
aI435
aI125
aI1198
aI1113
aI1246
aI1059
aI1035
aI1125
aI1269
aI1005
aI1215
aI146
aI819
aI309
aa(lp1092
I1096
aI1102
aI1084
aI163
aI436
aI120
aI1197
aI1114
aI1245
aI1060
aI1036
aI1126
aI1270
aI1006
aI1216
aI145
aI820
aI310
aa(lp1093
I1097
aI1103
aI1085
aI162
aI437
aI121
aI1196
aI1115
aI1244
aI1061
aI1037
aI1127
aI1271
aI1007
aI1217
aI144
aI821
aI311
aa(lp1094
I1098
aI1080
aI1086
aI173
aI438
aI128
aI1092
aI1092
aI1092
aI1062
aI1038
aI1128
aI1314
aI1093
aI1315
aI155
aI822
aI312
aa(lp1095
I1099
aI1081
aI1087
aI172
aI439
aI129
aI1093
aI1093
aI1093
aI1063
aI1039
aI1129
aI1315
aI1092
aI1314
aI154
aI823
aI313
aa(lp1096
I1100
aI1082
aI1088
aI171
aI440
aI130
aI1094
aI1094
aI1094
aI1064
aI1040
aI1130
aI1316
aI1097
aI1319
aI153
aI824
aI314
aa(lp1097
I1101
aI1083
aI1089
aI170
aI441
aI131
aI1095
aI1095
aI1095
aI1065
aI1041
aI1131
aI1317
aI1096
aI1318
aI152
aI825
aI315
aa(lp1098
I1102
aI1084
aI1090
aI169
aI442
aI126
aI1096
aI1096
aI1096
aI1066
aI1042
aI1132
aI1318
aI1095
aI1317
aI151
aI826
aI316
aa(lp1099
I1103
aI1085
aI1091
aI168
aI443
aI127
aI1097
aI1097
aI1097
aI1067
aI1043
aI1133
aI1319
aI1094
aI1316
aI150
aI827
aI317
aa(lp1100
I1080
aI1086
aI1092
aI179
aI444
aI140
aI1098
aI1098
aI1098
aI1068
aI1044
aI1134
aI1278
aI1021
aI1224
aI831
aI883
aI1156
aa(lp1101
I1081
aI1087
aI1093
aI178
aI445
aI141
aI1099
aI1099
aI1099
aI1069
aI1045
aI1135
aI1279
aI1020
aI1225
aI830
aI882
aI1157
aa(lp1102
I1082
aI1088
aI1094
aI177
aI446
aI142
aI1100
aI1100
aI1100
aI1070
aI1046
aI1136
aI1280
aI1025
aI1226
aI829
aI887
aI1152
aa(lp1103
I1083
aI1089
aI1095
aI176
aI447
aI143
aI1101
aI1101
aI1101
aI1071
aI1047
aI1137
aI1281
aI1024
aI1227
aI828
aI886
aI1153
aa(lp1104
I1084
aI1090
aI1096
aI175
aI448
aI138
aI1102
aI1102
aI1102
aI1072
aI1048
aI1138
aI1282
aI1023
aI1228
aI833
aI885
aI1154
aa(lp1105
I1085
aI1091
aI1097
aI174
aI449
aI139
aI1103
aI1103
aI1103
aI1073
aI1049
aI1139
aI1283
aI1022
aI1229
aI832
aI884
aI1155
aa(lp1106
I1104
aI1104
aI1104
aI453
aI426
aI1083
aI1104
aI1104
aI1104
aI1147
aI1105
aI1146
aI1284
aI1039
aI1230
aI176
aI834
aI324
aa(lp1107
I1105
aI1105
aI1105
aI452
aI427
aI1082
aI1105
aI1105
aI1105
aI1146
aI1104
aI1147
aI1285
aI1038
aI1231
aI177
aI835
aI325
aa(lp1108
I1106
aI1106
aI1106
aI451
aI428
aI1081
aI1106
aI1106
aI1106
aI1151
aI1109
aI1148
aI1286
aI1043
aI1232
aI178
aI836
aI326
aa(lp1109
I1107
aI1107
aI1107
aI450
aI429
aI1080
aI1107
aI1107
aI1107
aI1150
aI1108
aI1149
aI1287
aI1042
aI1233
aI179
aI837
aI327
aa(lp1110
I1108
aI1108
aI1108
aI455
aI430
aI1085
aI1108
aI1108
aI1108
aI1149
aI1107
aI1150
aI1288
aI1041
aI1234
aI174
aI838
aI328
aa(lp1111
I1109
aI1109
aI1109
aI454
aI431
aI1084
aI1109
aI1109
aI1109
aI1148
aI1106
aI1151
aI1289
aI1040
aI1235
aI175
aI839
aI329
aa(lp1112
I1110
aI1110
aI1110
aI206
aI456
aI182
aI1243
aI1086
aI1195
aI1074
aI1141
aI1152
aI1290
aI1063
aI1236
aI200
aI840
aI330
aa(lp1113
I1111
aI1111
aI1111
aI207
aI457
aI183
aI1242
aI1087
aI1194
aI1075
aI1140
aI1153
aI1291
aI1062
aI1237
aI201
aI841
aI331
aa(lp1114
I1112
aI1112
aI1112
aI208
aI458
aI184
aI1247
aI1088
aI1199
aI1076
aI1145
aI1154
aI1292
aI1067
aI1238
aI202
aI842
aI332
aa(lp1115
I1113
aI1113
aI1113
aI209
aI459
aI185
aI1246
aI1089
aI1198
aI1077
aI1144
aI1155
aI1293
aI1066
aI1239
aI203
aI843
aI333
aa(lp1116
I1114
aI1114
aI1114
aI204
aI460
aI180
aI1245
aI1090
aI1197
aI1078
aI1143
aI1156
aI1294
aI1065
aI1240
aI198
aI844
aI334
aa(lp1117
I1115
aI1115
aI1115
aI205
aI461
aI181
aI1244
aI1091
aI1196
aI1079
aI1142
aI1157
aI1295
aI1064
aI1241
aI199
aI845
aI335
aa(lp1118
I1122
aI1128
aI1134
aI1143
aI486
aI465
aI1116
aI1116
aI1116
aI1080
aI1050
aI1026
aI1116
aI1116
aI1116
aI1013
aI738
aI851
aa(lp1119
I1123
aI1129
aI1135
aI1142
aI487
aI464
aI1117
aI1117
aI1117
aI1081
aI1051
aI1027
aI1117
aI1117
aI1117
aI1012
aI739
aI850
aa(lp1120
I1124
aI1130
aI1136
aI1141
aI488
aI463
aI1118
aI1118
aI1118
aI1082
aI1052
aI1028
aI1118
aI1118
aI1118
aI1011
aI740
aI849
aa(lp1121
I1125
aI1131
aI1137
aI1140
aI489
aI462
aI1119
aI1119
aI1119
aI1083
aI1053
aI1029
aI1119
aI1119
aI1119
aI1010
aI741
aI848
aa(lp1122
I1126
aI1132
aI1138
aI1145
aI490
aI467
aI1120
aI1120
aI1120
aI1084
aI1054
aI1030
aI1120
aI1120
aI1120
aI1009
aI742
aI847
aa(lp1123
I1127
aI1133
aI1139
aI1144
aI491
aI466
aI1121
aI1121
aI1121
aI1085
aI1055
aI1031
aI1121
aI1121
aI1121
aI1008
aI743
aI846
aa(lp1124
I1128
aI1134
aI1116
aI257
aI468
aI212
aI1201
aI1146
aI1249
aI1086
aI1056
aI1032
aI1122
aI1122
aI1122
aI1019
aI744
aI857
aa(lp1125
I1129
aI1135
aI1117
aI256
aI469
aI213
aI1200
aI1147
aI1248
aI1087
aI1057
aI1033
aI1123
aI1123
aI1123
aI1018
aI745
aI856
aa(lp1126
I1130
aI1136
aI1118
aI255
aI470
aI214
aI1205
aI1148
aI1253
aI1088
aI1058
aI1034
aI1124
aI1124
aI1124
aI1017
aI746
aI855
aa(lp1127
I1131
aI1137
aI1119
aI254
aI471
aI215
aI1204
aI1149
aI1252
aI1089
aI1059
aI1035
aI1125
aI1125
aI1125
aI1016
aI747
aI854
aa(lp1128
I1132
aI1138
aI1120
aI253
aI472
aI210
aI1203
aI1150
aI1251
aI1090
aI1060
aI1036
aI1126
aI1126
aI1126
aI1015
aI748
aI853
aa(lp1129
I1133
aI1139
aI1121
aI252
aI473
aI211
aI1202
aI1151
aI1250
aI1091
aI1061
aI1037
aI1127
aI1127
aI1127
aI1014
aI749
aI852
aa(lp1130
I1134
aI1116
aI1122
aI263
aI474
aI218
aI1128
aI1128
aI1128
aI1092
aI1062
aI1038
aI1249
aI1152
aI1303
aI1025
aI750
aI863
aa(lp1131
I1135
aI1117
aI1123
aI262
aI475
aI219
aI1129
aI1129
aI1129
aI1093
aI1063
aI1039
aI1248
aI1153
aI1302
aI1024
aI751
aI862
aa(lp1132
I1136
aI1118
aI1124
aI261
aI476
aI220
aI1130
aI1130
aI1130
aI1094
aI1064
aI1040
aI1253
aI1154
aI1307
aI1023
aI752
aI861
aa(lp1133
I1137
aI1119
aI1125
aI260
aI477
aI221
aI1131
aI1131
aI1131
aI1095
aI1065
aI1041
aI1252
aI1155
aI1306
aI1022
aI753
aI860
aa(lp1134
I1138
aI1120
aI1126
aI259
aI478
aI216
aI1132
aI1132
aI1132
aI1096
aI1066
aI1042
aI1251
aI1156
aI1305
aI1021
aI754
aI859
aa(lp1135
I1139
aI1121
aI1127
aI258
aI479
aI217
aI1133
aI1133
aI1133
aI1097
aI1067
aI1043
aI1250
aI1157
aI1304
aI1020
aI755
aI858
aa(lp1136
I1116
aI1122
aI1128
aI269
aI480
aI230
aI1134
aI1134
aI1134
aI1098
aI1068
aI1044
aI1134
aI1134
aI1134
aI1280
aI865
aI1305
aa(lp1137
I1117
aI1123
aI1129
aI268
aI481
aI231
aI1135
aI1135
aI1135
aI1099
aI1069
aI1045
aI1135
aI1135
aI1135
aI1281
aI864
aI1304
aa(lp1138
I1118
aI1124
aI1130
aI267
aI482
aI232
aI1136
aI1136
aI1136
aI1100
aI1070
aI1046
aI1136
aI1136
aI1136
aI1282
aI869
aI1303
aa(lp1139
I1119
aI1125
aI1131
aI266
aI483
aI233
aI1137
aI1137
aI1137
aI1101
aI1071
aI1047
aI1137
aI1137
aI1137
aI1283
aI868
aI1302
aa(lp1140
I1120
aI1126
aI1132
aI265
aI484
aI228
aI1138
aI1138
aI1138
aI1102
aI1072
aI1048
aI1138
aI1138
aI1138
aI1278
aI867
aI1307
aa(lp1141
I1121
aI1127
aI1133
aI264
aI485
aI229
aI1139
aI1139
aI1139
aI1103
aI1073
aI1049
aI1139
aI1139
aI1139
aI1279
aI866
aI1306
aa(lp1142
I1140
aI1140
aI1140
aI489
aI462
aI1119
aI1140
aI1140
aI1140
aI1153
aI1111
aI1075
aI1140
aI1140
aI1140
aI1046
aI775
aI875
aa(lp1143
I1141
aI1141
aI1141
aI488
aI463
aI1118
aI1141
aI1141
aI1141
aI1152
aI1110
aI1074
aI1141
aI1141
aI1141
aI1047
aI774
aI874
aa(lp1144
I1142
aI1142
aI1142
aI487
aI464
aI1117
aI1142
aI1142
aI1142
aI1157
aI1115
aI1079
aI1142
aI1142
aI1142
aI1048
aI779
aI873
aa(lp1145
I1143
aI1143
aI1143
aI486
aI465
aI1116
aI1143
aI1143
aI1143
aI1156
aI1114
aI1078
aI1143
aI1143
aI1143
aI1049
aI778
aI872
aa(lp1146
I1144
aI1144
aI1144
aI491
aI466
aI1121
aI1144
aI1144
aI1144
aI1155
aI1113
aI1077
aI1144
aI1144
aI1144
aI1044
aI777
aI871
aa(lp1147
I1145
aI1145
aI1145
aI490
aI467
aI1120
aI1145
aI1145
aI1145
aI1154
aI1112
aI1076
aI1145
aI1145
aI1145
aI1045
aI776
aI870
aa(lp1148
I1146
aI1146
aI1146
aI296
aI492
aI272
aI1249
aI1122
aI1201
aI1104
aI1147
aI1105
aI1146
aI1146
aI1146
aI1070
aI799
aI881
aa(lp1149
I1147
aI1147
aI1147
aI297
aI493
aI273
aI1248
aI1123
aI1200
aI1105
aI1146
aI1104
aI1147
aI1147
aI1147
aI1071
aI798
aI880
aa(lp1150
I1148
aI1148
aI1148
aI298
aI494
aI274
aI1253
aI1124
aI1205
aI1106
aI1151
aI1109
aI1148
aI1148
aI1148
aI1072
aI803
aI879
aa(lp1151
I1149
aI1149
aI1149
aI299
aI495
aI275
aI1252
aI1125
aI1204
aI1107
aI1150
aI1108
aI1149
aI1149
aI1149
aI1073
aI802
aI878
aa(lp1152
I1150
aI1150
aI1150
aI294
aI496
aI270
aI1251
aI1126
aI1203
aI1108
aI1149
aI1107
aI1150
aI1150
aI1150
aI1068
aI801
aI877
aa(lp1153
I1151
aI1151
aI1151
aI295
aI497
aI271
aI1250
aI1127
aI1202
aI1109
aI1148
aI1106
aI1151
aI1151
aI1151
aI1069
aI800
aI876
aa(lp1154
I1152
aI1152
aI1152
aI326
aI498
aI302
aI1152
aI1152
aI1152
aI1110
aI1074
aI1141
aI1303
aI1128
aI1249
aI1100
aI829
aI887
aa(lp1155
I1153
aI1153
aI1153
aI327
aI499
aI303
aI1153
aI1153
aI1153
aI1111
aI1075
aI1140
aI1302
aI1129
aI1248
aI1101
aI828
aI886
aa(lp1156
I1154
aI1154
aI1154
aI328
aI500
aI304
aI1154
aI1154
aI1154
aI1112
aI1076
aI1145
aI1307
aI1130
aI1253
aI1102
aI833
aI885
aa(lp1157
I1155
aI1155
aI1155
aI329
aI501
aI305
aI1155
aI1155
aI1155
aI1113
aI1077
aI1144
aI1306
aI1131
aI1252
aI1103
aI832
aI884
aa(lp1158
I1156
aI1156
aI1156
aI324
aI502
aI300
aI1156
aI1156
aI1156
aI1114
aI1078
aI1143
aI1305
aI1132
aI1251
aI1098
aI831
aI883
aa(lp1159
I1157
aI1157
aI1157
aI325
aI503
aI301
aI1157
aI1157
aI1157
aI1115
aI1079
aI1142
aI1304
aI1133
aI1250
aI1099
aI830
aI882
aa(lp1160
I1164
aI1170
aI1176
aI1030
aI1187
aI375
aI1050
aI1206
aI990
aI1158
aI1158
aI1158
aI1158
aI1158
aI1158
aI359
aI888
aI467
aa(lp1161
I1165
aI1171
aI1177
aI1031
aI1186
aI374
aI1051
aI1207
aI991
aI1159
aI1159
aI1159
aI1159
aI1159
aI1159
aI358
aI889
aI466
aa(lp1162
I1166
aI1172
aI1178
aI1026
aI1185
aI373
aI1052
aI1208
aI992
aI1160
aI1160
aI1160
aI1160
aI1160
aI1160
aI357
aI890
aI465
aa(lp1163
I1167
aI1173
aI1179
aI1027
aI1184
aI372
aI1053
aI1209
aI993
aI1161
aI1161
aI1161
aI1161
aI1161
aI1161
aI356
aI891
aI464
aa(lp1164
I1168
aI1174
aI1180
aI1028
aI1183
aI377
aI1054
aI1210
aI994
aI1162
aI1162
aI1162
aI1162
aI1162
aI1162
aI355
aI892
aI463
aa(lp1165
I1169
aI1175
aI1181
aI1029
aI1182
aI376
aI1055
aI1211
aI995
aI1163
aI1163
aI1163
aI1163
aI1163
aI1163
aI354
aI893
aI462
aa(lp1166
I1170
aI1176
aI1158
aI25
aI1169
aI26
aI1189
aI1236
aI1213
aI1164
aI1164
aI1164
aI1164
aI1164
aI1164
aI365
aI894
aI473
aa(lp1167
I1171
aI1177
aI1159
aI24
aI1168
aI27
aI1188
aI1237
aI1212
aI1165
aI1165
aI1165
aI1165
aI1165
aI1165
aI364
aI895
aI472
aa(lp1168
I1172
aI1178
aI1160
aI29
aI1167
aI28
aI1193
aI1238
aI1217
aI1166
aI1166
aI1166
aI1166
aI1166
aI1166
aI363
aI896
aI471
aa(lp1169
I1173
aI1179
aI1161
aI28
aI1166
aI29
aI1192
aI1239
aI1216
aI1167
aI1167
aI1167
aI1167
aI1167
aI1167
aI362
aI897
aI470
aa(lp1170
I1174
aI1180
aI1162
aI27
aI1165
aI24
aI1191
aI1240
aI1215
aI1168
aI1168
aI1168
aI1168
aI1168
aI1168
aI361
aI898
aI469
aa(lp1171
I1175
aI1181
aI1163
aI26
aI1164
aI25
aI1190
aI1241
aI1214
aI1169
aI1169
aI1169
aI1169
aI1169
aI1169
aI360
aI899
aI468
aa(lp1172
I1176
aI1158
aI1164
aI31
aI1175
aI32
aI1062
aI1218
aI1003
aI1170
aI1170
aI1170
aI1255
aI1194
aI1309
aI371
aI900
aI479
aa(lp1173
I1177
aI1159
aI1165
aI30
aI1174
aI33
aI1063
aI1219
aI1002
aI1171
aI1171
aI1171
aI1254
aI1195
aI1308
aI370
aI901
aI478
aa(lp1174
I1178
aI1160
aI1166
aI35
aI1173
aI34
aI1064
aI1220
aI1007
aI1172
aI1172
aI1172
aI1259
aI1196
aI1313
aI369
aI902
aI477
aa(lp1175
I1179
aI1161
aI1167
aI34
aI1172
aI35
aI1065
aI1221
aI1006
aI1173
aI1173
aI1173
aI1258
aI1197
aI1312
aI368
aI903
aI476
aa(lp1176
I1180
aI1162
aI1168
aI33
aI1171
aI30
aI1066
aI1222
aI1005
aI1174
aI1174
aI1174
aI1257
aI1198
aI1311
aI367
aI904
aI475
aa(lp1177
I1181
aI1163
aI1169
aI32
aI1170
aI31
aI1067
aI1223
aI1004
aI1175
aI1175
aI1175
aI1256
aI1199
aI1310
aI366
aI905
aI474
aa(lp1178
I1158
aI1164
aI1170
aI43
aI1181
aI44
aI1068
aI1224
aI1015
aI1176
aI1176
aI1176
aI1176
aI1176
aI1176
aI909
aI930
aI1203
aa(lp1179
I1159
aI1165
aI1171
aI42
aI1180
aI45
aI1069
aI1225
aI1014
aI1177
aI1177
aI1177
aI1177
aI1177
aI1177
aI908
aI931
aI1202
aa(lp1180
I1160
aI1166
aI1172
aI47
aI1179
aI46
aI1070
aI1226
aI1019
aI1178
aI1178
aI1178
aI1178
aI1178
aI1178
aI907
aI932
aI1201
aa(lp1181
I1161
aI1167
aI1173
aI46
aI1178
aI47
aI1071
aI1227
aI1018
aI1179
aI1179
aI1179
aI1179
aI1179
aI1179
aI906
aI933
aI1200
aa(lp1182
I1162
aI1168
aI1174
aI45
aI1177
aI42
aI1072
aI1228
aI1017
aI1180
aI1180
aI1180
aI1180
aI1180
aI1180
aI911
aI934
aI1205
aa(lp1183
I1163
aI1169
aI1175
aI44
aI1176
aI43
aI1073
aI1229
aI1016
aI1181
aI1181
aI1181
aI1181
aI1181
aI1181
aI910
aI935
aI1204
aa(lp1184
I1182
aI1182
aI1182
aI376
aI1163
aI1029
aI1074
aI1230
aI1033
aI1200
aI1194
aI1188
aI1182
aI1182
aI1182
aI392
aI912
aI491
aa(lp1185
I1183
aI1183
aI1183
aI377
aI1162
aI1028
aI1075
aI1231
aI1032
aI1201
aI1195
aI1189
aI1183
aI1183
aI1183
aI393
aI913
aI490
aa(lp1186
I1184
aI1184
aI1184
aI372
aI1161
aI1027
aI1076
aI1232
aI1037
aI1202
aI1196
aI1190
aI1184
aI1184
aI1184
aI394
aI914
aI489
aa(lp1187
I1185
aI1185
aI1185
aI373
aI1160
aI1026
aI1077
aI1233
aI1036
aI1203
aI1197
aI1191
aI1185
aI1185
aI1185
aI395
aI915
aI488
aa(lp1188
I1186
aI1186
aI1186
aI374
aI1159
aI1031
aI1078
aI1234
aI1035
aI1204
aI1198
aI1192
aI1186
aI1186
aI1186
aI390
aI916
aI487
aa(lp1189
I1187
aI1187
aI1187
aI375
aI1158
aI1030
aI1079
aI1235
aI1034
aI1205
aI1199
aI1193
aI1187
aI1187
aI1187
aI391
aI917
aI486
aa(lp1190
I1188
aI1188
aI1188
aI100
aI1193
aI99
aI1237
aI1212
aI1165
aI1182
aI1200
aI1194
aI1188
aI1188
aI1188
aI416
aI918
aI497
aa(lp1191
I1189
aI1189
aI1189
aI101
aI1192
aI98
aI1236
aI1213
aI1164
aI1183
aI1201
aI1195
aI1189
aI1189
aI1189
aI417
aI919
aI496
aa(lp1192
I1190
aI1190
aI1190
aI96
aI1191
aI97
aI1241
aI1214
aI1169
aI1184
aI1202
aI1196
aI1190
aI1190
aI1190
aI418
aI920
aI495
aa(lp1193
I1191
aI1191
aI1191
aI97
aI1190
aI96
aI1240
aI1215
aI1168
aI1185
aI1203
aI1197
aI1191
aI1191
aI1191
aI419
aI921
aI494
aa(lp1194
I1192
aI1192
aI1192
aI98
aI1189
aI101
aI1239
aI1216
aI1167
aI1186
aI1204
aI1198
aI1192
aI1192
aI1192
aI414
aI922
aI493
aa(lp1195
I1193
aI1193
aI1193
aI99
aI1188
aI100
aI1238
aI1217
aI1166
aI1187
aI1205
aI1199
aI1193
aI1193
aI1193
aI415
aI923
aI492
aa(lp1196
I1194
aI1194
aI1194
aI160
aI1199
aI159
aI1111
aI1242
aI1087
aI1188
aI1182
aI1200
aI1309
aI1170
aI1255
aI446
aI924
aI503
aa(lp1197
I1195
aI1195
aI1195
aI161
aI1198
aI158
aI1110
aI1243
aI1086
aI1189
aI1183
aI1201
aI1308
aI1171
aI1254
aI447
aI925
aI502
aa(lp1198
I1196
aI1196
aI1196
aI156
aI1197
aI157
aI1115
aI1244
aI1091
aI1190
aI1184
aI1202
aI1313
aI1172
aI1259
aI448
aI926
aI501
aa(lp1199
I1197
aI1197
aI1197
aI157
aI1196
aI156
aI1114
aI1245
aI1090
aI1191
aI1185
aI1203
aI1312
aI1173
aI1258
aI449
aI927
aI500
aa(lp1200
I1198
aI1198
aI1198
aI158
aI1195
aI161
aI1113
aI1246
aI1089
aI1192
aI1186
aI1204
aI1311
aI1174
aI1257
aI444
aI928
aI499
aa(lp1201
I1199
aI1199
aI1199
aI159
aI1194
aI160
aI1112
aI1247
aI1088
aI1193
aI1187
aI1205
aI1310
aI1175
aI1256
aI445
aI929
aI498
aa(lp1202
I1200
aI1200
aI1200
aI250
aI1205
aI249
aI1147
aI1248
aI1123
aI1194
aI1188
aI1182
aI1200
aI1200
aI1200
aI1179
aI906
aI933
aa(lp1203
I1201
aI1201
aI1201
aI251
aI1204
aI248
aI1146
aI1249
aI1122
aI1195
aI1189
aI1183
aI1201
aI1201
aI1201
aI1178
aI907
aI932
aa(lp1204
I1202
aI1202
aI1202
aI246
aI1203
aI247
aI1151
aI1250
aI1127
aI1196
aI1190
aI1184
aI1202
aI1202
aI1202
aI1177
aI908
aI931
aa(lp1205
I1203
aI1203
aI1203
aI247
aI1202
aI246
aI1150
aI1251
aI1126
aI1197
aI1191
aI1185
aI1203
aI1203
aI1203
aI1176
aI909
aI930
aa(lp1206
I1204
aI1204
aI1204
aI248
aI1201
aI251
aI1149
aI1252
aI1125
aI1198
aI1192
aI1186
aI1204
aI1204
aI1204
aI1181
aI910
aI935
aa(lp1207
I1205
aI1205
aI1205
aI249
aI1200
aI250
aI1148
aI1253
aI1124
aI1199
aI1193
aI1187
aI1205
aI1205
aI1205
aI1180
aI911
aI934
aa(lp1208
I1212
aI1218
aI1224
aI1233
aI701
aI674
aI990
aI1158
aI1050
aI1206
aI1206
aI1206
aI1080
aI1260
aI996
aI527
aI936
aI635
aa(lp1209
I1213
aI1219
aI1225
aI1232
aI700
aI675
aI991
aI1159
aI1051
aI1207
aI1207
aI1207
aI1081
aI1261
aI997
aI526
aI937
aI634
aa(lp1210
I1214
aI1220
aI1226
aI1231
aI699
aI676
aI992
aI1160
aI1052
aI1208
aI1208
aI1208
aI1082
aI1262
aI998
aI525
aI938
aI633
aa(lp1211
I1215
aI1221
aI1227
aI1230
aI698
aI677
aI993
aI1161
aI1053
aI1209
aI1209
aI1209
aI1083
aI1263
aI999
aI524
aI939
aI632
aa(lp1212
I1216
aI1222
aI1228
aI1235
aI697
aI672
aI994
aI1162
aI1054
aI1210
aI1210
aI1210
aI1084
aI1264
aI1000
aI523
aI940
aI631
aa(lp1213
I1217
aI1223
aI1229
aI1234
aI696
aI673
aI995
aI1163
aI1055
aI1211
aI1211
aI1211
aI1085
aI1265
aI1001
aI522
aI941
aI630
aa(lp1214
I1218
aI1224
aI1206
aI551
aI683
aI506
aI1165
aI1188
aI1237
aI1212
aI1212
aI1212
aI1086
aI1266
aI1002
aI533
aI942
aI641
aa(lp1215
I1219
aI1225
aI1207
aI550
aI682
aI507
aI1164
aI1189
aI1236
aI1213
aI1213
aI1213
aI1087
aI1267
aI1003
aI532
aI943
aI640
aa(lp1216
I1220
aI1226
aI1208
aI549
aI681
aI508
aI1169
aI1190
aI1241
aI1214
aI1214
aI1214
aI1088
aI1268
aI1004
aI531
aI944
aI639
aa(lp1217
I1221
aI1227
aI1209
aI548
aI680
aI509
aI1168
aI1191
aI1240
aI1215
aI1215
aI1215
aI1089
aI1269
aI1005
aI530
aI945
aI638
aa(lp1218
I1222
aI1228
aI1210
aI547
aI679
aI504
aI1167
aI1192
aI1239
aI1216
aI1216
aI1216
aI1090
aI1270
aI1006
aI529
aI946
aI637
aa(lp1219
I1223
aI1229
aI1211
aI546
aI678
aI505
aI1166
aI1193
aI1238
aI1217
aI1217
aI1217
aI1091
aI1271
aI1007
aI528
aI947
aI636
aa(lp1220
I1224
aI1206
aI1212
aI557
aI689
aI512
aI1003
aI1170
aI1062
aI1218
aI1218
aI1218
aI1243
aI1296
aI1273
aI539
aI948
aI647
aa(lp1221
I1225
aI1207
aI1213
aI556
aI688
aI513
aI1002
aI1171
aI1063
aI1219
aI1219
aI1219
aI1242
aI1297
aI1272
aI538
aI949
aI646
aa(lp1222
I1226
aI1208
aI1214
aI555
aI687
aI514
aI1007
aI1172
aI1064
aI1220
aI1220
aI1220
aI1247
aI1298
aI1277
aI537
aI950
aI645
aa(lp1223
I1227
aI1209
aI1215
aI554
aI686
aI515
aI1006
aI1173
aI1065
aI1221
aI1221
aI1221
aI1246
aI1299
aI1276
aI536
aI951
aI644
aa(lp1224
I1228
aI1210
aI1216
aI553
aI685
aI510
aI1005
aI1174
aI1066
aI1222
aI1222
aI1222
aI1245
aI1300
aI1275
aI535
aI952
aI643
aa(lp1225
I1229
aI1211
aI1217
aI552
aI684
aI511
aI1004
aI1175
aI1067
aI1223
aI1223
aI1223
aI1244
aI1301
aI1274
aI534
aI953
aI642
aa(lp1226
I1206
aI1212
aI1218
aI563
aI695
aI524
aI1015
aI1176
aI1068
aI1224
aI1224
aI1224
aI1098
aI1278
aI1021
aI957
aI978
aI1251
aa(lp1227
I1207
aI1213
aI1219
aI562
aI694
aI525
aI1014
aI1177
aI1069
aI1225
aI1225
aI1225
aI1099
aI1279
aI1020
aI956
aI979
aI1250
aa(lp1228
I1208
aI1214
aI1220
aI561
aI693
aI526
aI1019
aI1178
aI1070
aI1226
aI1226
aI1226
aI1100
aI1280
aI1025
aI955
aI980
aI1249
aa(lp1229
I1209
aI1215
aI1221
aI560
aI692
aI527
aI1018
aI1179
aI1071
aI1227
aI1227
aI1227
aI1101
aI1281
aI1024
aI954
aI981
aI1248
aa(lp1230
I1210
aI1216
aI1222
aI559
aI691
aI522
aI1017
aI1180
aI1072
aI1228
aI1228
aI1228
aI1102
aI1282
aI1023
aI959
aI982
aI1253
aa(lp1231
I1211
aI1217
aI1223
aI558
aI690
aI523
aI1016
aI1181
aI1073
aI1229
aI1229
aI1229
aI1103
aI1283
aI1022
aI958
aI983
aI1252
aa(lp1232
I1230
aI1230
aI1230
aI698
aI677
aI1209
aI1033
aI1182
aI1074
aI1248
aI1242
aI1236
aI1104
aI1284
aI1039
aI560
aI960
aI659
aa(lp1233
I1231
aI1231
aI1231
aI699
aI676
aI1208
aI1032
aI1183
aI1075
aI1249
aI1243
aI1237
aI1105
aI1285
aI1038
aI561
aI961
aI658
aa(lp1234
I1232
aI1232
aI1232
aI700
aI675
aI1207
aI1037
aI1184
aI1076
aI1250
aI1244
aI1238
aI1106
aI1286
aI1043
aI562
aI962
aI657
aa(lp1235
I1233
aI1233
aI1233
aI701
aI674
aI1206
aI1036
aI1185
aI1077
aI1251
aI1245
aI1239
aI1107
aI1287
aI1042
aI563
aI963
aI656
aa(lp1236
I1234
aI1234
aI1234
aI696
aI673
aI1211
aI1035
aI1186
aI1078
aI1252
aI1246
aI1240
aI1108
aI1288
aI1041
aI558
aI964
aI655
aa(lp1237
I1235
aI1235
aI1235
aI697
aI672
aI1210
aI1034
aI1187
aI1079
aI1253
aI1247
aI1241
aI1109
aI1289
aI1040
aI559
aI965
aI654
aa(lp1238
I1236
aI1236
aI1236
aI590
aI707
aI566
aI1213
aI1164
aI1189
aI1230
aI1248
aI1242
aI1110
aI1290
aI1063
aI584
aI966
aI665
aa(lp1239
I1237
aI1237
aI1237
aI591
aI706
aI567
aI1212
aI1165
aI1188
aI1231
aI1249
aI1243
aI1111
aI1291
aI1062
aI585
aI967
aI664
aa(lp1240
I1238
aI1238
aI1238
aI592
aI705
aI568
aI1217
aI1166
aI1193
aI1232
aI1250
aI1244
aI1112
aI1292
aI1067
aI586
aI968
aI663
aa(lp1241
I1239
aI1239
aI1239
aI593
aI704
aI569
aI1216
aI1167
aI1192
aI1233
aI1251
aI1245
aI1113
aI1293
aI1066
aI587
aI969
aI662
aa(lp1242
I1240
aI1240
aI1240
aI588
aI703
aI564
aI1215
aI1168
aI1191
aI1234
aI1252
aI1246
aI1114
aI1294
aI1065
aI582
aI970
aI661
aa(lp1243
I1241
aI1241
aI1241
aI589
aI702
aI565
aI1214
aI1169
aI1190
aI1235
aI1253
aI1247
aI1115
aI1295
aI1064
aI583
aI971
aI660
aa(lp1244
I1242
aI1242
aI1242
aI620
aI713
aI596
aI1087
aI1194
aI1111
aI1236
aI1230
aI1248
aI1297
aI1272
aI1219
aI614
aI972
aI671
aa(lp1245
I1243
aI1243
aI1243
aI621
aI712
aI597
aI1086
aI1195
aI1110
aI1237
aI1231
aI1249
aI1296
aI1273
aI1218
aI615
aI973
aI670
aa(lp1246
I1244
aI1244
aI1244
aI622
aI711
aI598
aI1091
aI1196
aI1115
aI1238
aI1232
aI1250
aI1301
aI1274
aI1223
aI616
aI974
aI669
aa(lp1247
I1245
aI1245
aI1245
aI623
aI710
aI599
aI1090
aI1197
aI1114
aI1239
aI1233
aI1251
aI1300
aI1275
aI1222
aI617
aI975
aI668
aa(lp1248
I1246
aI1246
aI1246
aI618
aI709
aI594
aI1089
aI1198
aI1113
aI1240
aI1234
aI1252
aI1299
aI1276
aI1221
aI612
aI976
aI667
aa(lp1249
I1247
aI1247
aI1247
aI619
aI708
aI595
aI1088
aI1199
aI1112
aI1241
aI1235
aI1253
aI1298
aI1277
aI1220
aI613
aI977
aI666
aa(lp1250
I1248
aI1248
aI1248
aI656
aI719
aI632
aI1123
aI1200
aI1147
aI1242
aI1236
aI1230
aI1153
aI1302
aI1129
aI1227
aI954
aI981
aa(lp1251
I1249
aI1249
aI1249
aI657
aI718
aI633
aI1122
aI1201
aI1146
aI1243
aI1237
aI1231
aI1152
aI1303
aI1128
aI1226
aI955
aI980
aa(lp1252
I1250
aI1250
aI1250
aI658
aI717
aI634
aI1127
aI1202
aI1151
aI1244
aI1238
aI1232
aI1157
aI1304
aI1133
aI1225
aI956
aI979
aa(lp1253
I1251
aI1251
aI1251
aI659
aI716
aI635
aI1126
aI1203
aI1150
aI1245
aI1239
aI1233
aI1156
aI1305
aI1132
aI1224
aI957
aI978
aa(lp1254
I1252
aI1252
aI1252
aI654
aI715
aI630
aI1125
aI1204
aI1149
aI1246
aI1240
aI1234
aI1155
aI1306
aI1131
aI1229
aI958
aI983
aa(lp1255
I1253
aI1253
aI1253
aI655
aI714
aI631
aI1124
aI1205
aI1148
aI1247
aI1241
aI1235
aI1154
aI1307
aI1130
aI1228
aI959
aI982
aa(lp1256
I1254
aI1254
aI1254
aI545
aI1257
aI542
aI1057
aI1255
aI1056
aI1254
aI1254
aI1254
aI1195
aI1308
aI1171
aI692
aI984
aI716
aa(lp1257
I1255
aI1255
aI1255
aI544
aI1256
aI543
aI1056
aI1254
aI1057
aI1255
aI1255
aI1255
aI1194
aI1309
aI1170
aI693
aI985
aI717
aa(lp1258
I1256
aI1256
aI1256
aI543
aI1255
aI544
aI1061
aI1259
aI1058
aI1256
aI1256
aI1256
aI1199
aI1310
aI1175
aI694
aI986
aI718
aa(lp1259
I1257
aI1257
aI1257
aI542
aI1254
aI545
aI1060
aI1258
aI1059
aI1257
aI1257
aI1257
aI1198
aI1311
aI1174
aI695
aI987
aI719
aa(lp1260
I1258
aI1258
aI1258
aI541
aI1259
aI540
aI1059
aI1257
aI1060
aI1258
aI1258
aI1258
aI1197
aI1312
aI1173
aI690
aI988
aI714
aa(lp1261
I1259
aI1259
aI1259
aI540
aI1258
aI541
aI1058
aI1256
aI1061
aI1259
aI1259
aI1259
aI1196
aI1313
aI1172
aI691
aI989
aI715
aa(lp1262
I1266
aI1272
aI1278
aI1287
aI917
aI890
aI1260
aI1260
aI1260
aI1260
aI1260
aI1260
aI996
aI1206
aI1080
aI233
aI1265
aI228
aa(lp1263
I1267
aI1273
aI1279
aI1286
aI916
aI891
aI1261
aI1261
aI1261
aI1261
aI1261
aI1261
aI997
aI1207
aI1081
aI232
aI1264
aI229
aa(lp1264
I1268
aI1274
aI1280
aI1285
aI915
aI892
aI1262
aI1262
aI1262
aI1262
aI1262
aI1262
aI998
aI1208
aI1082
aI231
aI1263
aI230
aa(lp1265
I1269
aI1275
aI1281
aI1284
aI914
aI893
aI1263
aI1263
aI1263
aI1263
aI1263
aI1263
aI999
aI1209
aI1083
aI230
aI1262
aI231
aa(lp1266
I1270
aI1276
aI1282
aI1289
aI913
aI888
aI1264
aI1264
aI1264
aI1264
aI1264
aI1264
aI1000
aI1210
aI1084
aI229
aI1261
aI232
aa(lp1267
I1271
aI1277
aI1283
aI1288
aI912
aI889
aI1265
aI1265
aI1265
aI1265
aI1265
aI1265
aI1001
aI1211
aI1085
aI228
aI1260
aI233
aa(lp1268
I1272
aI1278
aI1260
aI767
aI899
aI722
aI1308
aI1290
aI1314
aI1266
aI1266
aI1266
aI1002
aI1212
aI1086
aI239
aI1271
aI234
aa(lp1269
I1273
aI1279
aI1261
aI766
aI898
aI723
aI1309
aI1291
aI1315
aI1267
aI1267
aI1267
aI1003
aI1213
aI1087
aI238
aI1270
aI235
aa(lp1270
I1274
aI1280
aI1262
aI765
aI897
aI724
aI1310
aI1292
aI1316
aI1268
aI1268
aI1268
aI1004
aI1214
aI1088
aI237
aI1269
aI236
aa(lp1271
I1275
aI1281
aI1263
aI764
aI896
aI725
aI1311
aI1293
aI1317
aI1269
aI1269
aI1269
aI1005
aI1215
aI1089
aI236
aI1268
aI237
aa(lp1272
I1276
aI1282
aI1264
aI763
aI895
aI720
aI1312
aI1294
aI1318
aI1270
aI1270
aI1270
aI1006
aI1216
aI1090
aI235
aI1267
aI238
aa(lp1273
I1277
aI1283
aI1265
aI762
aI894
aI721
aI1313
aI1295
aI1319
aI1271
aI1271
aI1271
aI1007
aI1217
aI1091
aI234
aI1266
aI239
aa(lp1274
I1278
aI1260
aI1266
aI773
aI905
aI728
aI1272
aI1272
aI1272
aI1272
aI1272
aI1272
aI1219
aI1242
aI1297
aI245
aI1277
aI240
aa(lp1275
I1279
aI1261
aI1267
aI772
aI904
aI729
aI1273
aI1273
aI1273
aI1273
aI1273
aI1273
aI1218
aI1243
aI1296
aI244
aI1276
aI241
aa(lp1276
I1280
aI1262
aI1268
aI771
aI903
aI730
aI1274
aI1274
aI1274
aI1274
aI1274
aI1274
aI1223
aI1244
aI1301
aI243
aI1275
aI242
aa(lp1277
I1281
aI1263
aI1269
aI770
aI902
aI731
aI1275
aI1275
aI1275
aI1275
aI1275
aI1275
aI1222
aI1245
aI1300
aI242
aI1274
aI243
aa(lp1278
I1282
aI1264
aI1270
aI769
aI901
aI726
aI1276
aI1276
aI1276
aI1276
aI1276
aI1276
aI1221
aI1246
aI1299
aI241
aI1273
aI244
aa(lp1279
I1283
aI1265
aI1271
aI768
aI900
aI727
aI1277
aI1277
aI1277
aI1277
aI1277
aI1277
aI1220
aI1247
aI1298
aI240
aI1272
aI245
aa(lp1280
I1260
aI1266
aI1272
aI779
aI911
aI740
aI1278
aI1278
aI1278
aI1278
aI1278
aI1278
aI1021
aI1224
aI1098
aI867
aI1307
aI1138
aa(lp1281
I1261
aI1267
aI1273
aI778
aI910
aI741
aI1279
aI1279
aI1279
aI1279
aI1279
aI1279
aI1020
aI1225
aI1099
aI866
aI1306
aI1139
aa(lp1282
I1262
aI1268
aI1274
aI777
aI909
aI742
aI1280
aI1280
aI1280
aI1280
aI1280
aI1280
aI1025
aI1226
aI1100
aI865
aI1305
aI1134
aa(lp1283
I1263
aI1269
aI1275
aI776
aI908
aI743
aI1281
aI1281
aI1281
aI1281
aI1281
aI1281
aI1024
aI1227
aI1101
aI864
aI1304
aI1135
aa(lp1284
I1264
aI1270
aI1276
aI775
aI907
aI738
aI1282
aI1282
aI1282
aI1282
aI1282
aI1282
aI1023
aI1228
aI1102
aI869
aI1303
aI1136
aa(lp1285
I1265
aI1271
aI1277
aI774
aI906
aI739
aI1283
aI1283
aI1283
aI1283
aI1283
aI1283
aI1022
aI1229
aI1103
aI868
aI1302
aI1137
aa(lp1286
I1284
aI1284
aI1284
aI914
aI893
aI1263
aI1284
aI1284
aI1284
aI1302
aI1296
aI1290
aI1039
aI1230
aI1104
aI266
aI1289
aI265
aa(lp1287
I1285
aI1285
aI1285
aI915
aI892
aI1262
aI1285
aI1285
aI1285
aI1303
aI1297
aI1291
aI1038
aI1231
aI1105
aI267
aI1288
aI264
aa(lp1288
I1286
aI1286
aI1286
aI916
aI891
aI1261
aI1286
aI1286
aI1286
aI1304
aI1298
aI1292
aI1043
aI1232
aI1106
aI268
aI1287
aI269
aa(lp1289
I1287
aI1287
aI1287
aI917
aI890
aI1260
aI1287
aI1287
aI1287
aI1305
aI1299
aI1293
aI1042
aI1233
aI1107
aI269
aI1286
aI268
aa(lp1290
I1288
aI1288
aI1288
aI912
aI889
aI1265
aI1288
aI1288
aI1288
aI1306
aI1300
aI1294
aI1041
aI1234
aI1108
aI264
aI1285
aI267
aa(lp1291
I1289
aI1289
aI1289
aI913
aI888
aI1264
aI1289
aI1289
aI1289
aI1307
aI1301
aI1295
aI1040
aI1235
aI1109
aI265
aI1284
aI266
aa(lp1292
I1290
aI1290
aI1290
aI806
aI923
aI782
aI1314
aI1266
aI1308
aI1284
aI1302
aI1296
aI1063
aI1236
aI1110
aI290
aI1295
aI289
aa(lp1293
I1291
aI1291
aI1291
aI807
aI922
aI783
aI1315
aI1267
aI1309
aI1285
aI1303
aI1297
aI1062
aI1237
aI1111
aI291
aI1294
aI288
aa(lp1294
I1292
aI1292
aI1292
aI808
aI921
aI784
aI1316
aI1268
aI1310
aI1286
aI1304
aI1298
aI1067
aI1238
aI1112
aI292
aI1293
aI293
aa(lp1295
I1293
aI1293
aI1293
aI809
aI920
aI785
aI1317
aI1269
aI1311
aI1287
aI1305
aI1299
aI1066
aI1239
aI1113
aI293
aI1292
aI292
aa(lp1296
I1294
aI1294
aI1294
aI804
aI919
aI780
aI1318
aI1270
aI1312
aI1288
aI1306
aI1300
aI1065
aI1240
aI1114
aI288
aI1291
aI291
aa(lp1297
I1295
aI1295
aI1295
aI805
aI918
aI781
aI1319
aI1271
aI1313
aI1289
aI1307
aI1301
aI1064
aI1241
aI1115
aI289
aI1290
aI290
aa(lp1298
I1296
aI1296
aI1296
aI836
aI929
aI812
aI1296
aI1296
aI1296
aI1290
aI1284
aI1302
aI1273
aI1218
aI1243
aI320
aI1301
aI319
aa(lp1299
I1297
aI1297
aI1297
aI837
aI928
aI813
aI1297
aI1297
aI1297
aI1291
aI1285
aI1303
aI1272
aI1219
aI1242
aI321
aI1300
aI318
aa(lp1300
I1298
aI1298
aI1298
aI838
aI927
aI814
aI1298
aI1298
aI1298
aI1292
aI1286
aI1304
aI1277
aI1220
aI1247
aI322
aI1299
aI323
aa(lp1301
I1299
aI1299
aI1299
aI839
aI926
aI815
aI1299
aI1299
aI1299
aI1293
aI1287
aI1305
aI1276
aI1221
aI1246
aI323
aI1298
aI322
aa(lp1302
I1300
aI1300
aI1300
aI834
aI925
aI810
aI1300
aI1300
aI1300
aI1294
aI1288
aI1306
aI1275
aI1222
aI1245
aI318
aI1297
aI321
aa(lp1303
I1301
aI1301
aI1301
aI835
aI924
aI811
aI1301
aI1301
aI1301
aI1295
aI1289
aI1307
aI1274
aI1223
aI1244
aI319
aI1296
aI320
aa(lp1304
I1302
aI1302
aI1302
aI872
aI935
aI848
aI1302
aI1302
aI1302
aI1296
aI1290
aI1284
aI1129
aI1248
aI1153
aI1137
aI1283
aI868
aa(lp1305
I1303
aI1303
aI1303
aI873
aI934
aI849
aI1303
aI1303
aI1303
aI1297
aI1291
aI1285
aI1128
aI1249
aI1152
aI1136
aI1282
aI869
aa(lp1306
I1304
aI1304
aI1304
aI874
aI933
aI850
aI1304
aI1304
aI1304
aI1298
aI1292
aI1286
aI1133
aI1250
aI1157
aI1135
aI1281
aI864
aa(lp1307
I1305
aI1305
aI1305
aI875
aI932
aI851
aI1305
aI1305
aI1305
aI1299
aI1293
aI1287
aI1132
aI1251
aI1156
aI1134
aI1280
aI865
aa(lp1308
I1306
aI1306
aI1306
aI870
aI931
aI846
aI1306
aI1306
aI1306
aI1300
aI1294
aI1288
aI1131
aI1252
aI1155
aI1139
aI1279
aI866
aa(lp1309
I1307
aI1307
aI1307
aI871
aI930
aI847
aI1307
aI1307
aI1307
aI1301
aI1295
aI1289
aI1130
aI1253
aI1154
aI1138
aI1278
aI867
aa(lp1310
I1308
aI1308
aI1308
aI761
aI1311
aI758
aI1290
aI1314
aI1266
aI1308
aI1308
aI1308
aI1171
aI1254
aI1195
aI483
aI1313
aI484
aa(lp1311
I1309
aI1309
aI1309
aI760
aI1310
aI759
aI1291
aI1315
aI1267
aI1309
aI1309
aI1309
aI1170
aI1255
aI1194
aI482
aI1312
aI485
aa(lp1312
I1310
aI1310
aI1310
aI759
aI1309
aI760
aI1292
aI1316
aI1268
aI1310
aI1310
aI1310
aI1175
aI1256
aI1199
aI481
aI1311
aI480
aa(lp1313
I1311
aI1311
aI1311
aI758
aI1308
aI761
aI1293
aI1317
aI1269
aI1311
aI1311
aI1311
aI1174
aI1257
aI1198
aI480
aI1310
aI481
aa(lp1314
I1312
aI1312
aI1312
aI757
aI1313
aI756
aI1294
aI1318
aI1270
aI1312
aI1312
aI1312
aI1173
aI1258
aI1197
aI485
aI1309
aI482
aa(lp1315
I1313
aI1313
aI1313
aI756
aI1312
aI757
aI1295
aI1319
aI1271
aI1313
aI1313
aI1313
aI1172
aI1259
aI1196
aI484
aI1308
aI483
aa(lp1316
I1314
aI1314
aI1314
aI962
aI986
aI938
aI1266
aI1308
aI1290
aI1314
aI1314
aI1314
aI1093
aI1315
aI1092
aI651
aI1319
aI652
aa(lp1317
I1315
aI1315
aI1315
aI963
aI987
aI939
aI1267
aI1309
aI1291
aI1315
aI1315
aI1315
aI1092
aI1314
aI1093
aI650
aI1318
aI653
aa(lp1318
I1316
aI1316
aI1316
aI964
aI988
aI940
aI1268
aI1310
aI1292
aI1316
aI1316
aI1316
aI1097
aI1319
aI1094
aI649
aI1317
aI648
aa(lp1319
I1317
aI1317
aI1317
aI965
aI989
aI941
aI1269
aI1311
aI1293
aI1317
aI1317
aI1317
aI1096
aI1318
aI1095
aI648
aI1316
aI649
aa(lp1320
I1318
aI1318
aI1318
aI960
aI984
aI936
aI1270
aI1312
aI1294
aI1318
aI1318
aI1318
aI1095
aI1317
aI1096
aI653
aI1315
aI650
aa(lp1321
I1319
aI1319
aI1319
aI961
aI985
aI937
aI1271
aI1313
aI1295
aI1319
aI1319
aI1319
aI1094
aI1316
aI1097
aI652
aI1314
aI651
aa.